(dp0
S'hasn\\;t'
p1
S"hasn't"
p2
sS'thgat'
p3
S'that'
p4
sS'becausea'
p5
S'because a'
p6
sS'quazwork'
p7
S'quaz-work'
p8
sS':)'
p9
S'smiles'
p10
sS'inpo'
p11
S'in no particular order'
p12
sS'tanj'
p13
S"there ain't no justice"
p14
sS'your the'
p15
S"you're the"
p16
sS'its a'
p17
S"it's a"
p18
sS'articel'
p19
S'article'
p20
sS'improvemnt'
p21
S'improvement'
p22
sS'remeber'
p23
S'remember'
p24
sS'nwe'
p25
S'new'
p26
sS':>'
p27
g10
sS'documetn'
p28
S'document'
p29
sS'gb'
p30
S'gigabytes'
p31
sS'bve'
p32
S'be'
p33
sS'comntain'
p34
S'contain'
p35
sS'coudl'
p36
S'could'
p37
sS'nwo'
p38
S'now'
p39
sS'would of had'
p40
S'would have had'
p41
sS'successfull'
p42
S'successful'
p43
sS'dcument'
p44
g29
sS'alomst'
p45
S'almost'
p46
sS'somthing'
p47
S'something'
p48
sS'ott'
p49
S'over the top'
p50
sS'ttyl'
p51
S'talk to you later'
p52
sS'yera'
p53
S'year'
p54
sS'receieve'
p55
S'receive'
p56
sS'forthe'
p57
S'for the'
p58
sS'adequit'
p59
S'adequate'
p60
sS'tehy'
p61
S'they'
p62
sS'donig'
p63
S'doing'
p64
sS'it snot'
p65
S"it's not"
p66
sS'fwiw'
p67
S"for what it's worth"
p68
sS'beutiful'
p69
S'beautiful'
p70
sS'ofthe'
p71
S'of the'
p72
sS'thsoe'
p73
S'those'
p74
sS'wnated'
p75
S'wanted'
p76
sS'docuement'
p77
S'documents'
p78
sS'happend'
p79
S'happened'
p80
sS'desisions'
p81
S'decisions'
p82
sS'oppotunities'
p83
S'opportunities'
p84
sS'tkaes'
p85
S'takes'
p86
sS'occurrance'
p87
S'occurrence'
p88
sS'we\\;ve'
p89
S"we've"
p90
sS'havebeen'
p91
S'have been'
p92
sS'freind'
p93
S'friend'
p94
sS'rotfl'
p95
S'rolling on the floor laughing'
p96
sS'wa snot'
p97
S'was not'
p98
sS'conspiricy'
p99
S'conspiracy'
p100
sS':p'
p101
S'sticks tongue out'
p102
sS'represnt'
p103
S'represent'
p104
sS'differemt'
p105
S'different'
p106
sS'awc'
p107
S'after while, crocodile'
p108
sS'fowards'
p109
S'forwards'
p110
sS'yuor'
p111
S'your'
p112
sS'gettin'
p113
S'getting'
p114
sS'commadn'
p115
S'command'
p116
sS'suprised'
p117
S'surprised'
p118
sS'usualyl'
p119
S'usually'
p120
sS'litttle'
p121
S'little'
p122
sS'becomming'
p123
S'becoming'
p124
sS'considerite'
p125
S'considerate'
p126
sS'librarry'
p127
S'library'
p128
sS'your my'
p129
S"you're my"
p130
sS'alraedy'
p131
S'already'
p132
sS'merchent'
p133
S'merchant'
p134
sS'ttksf'
p135
S'trying to keep a straight face'
p136
sS'hlep'
p137
S'help'
p138
sS'teh'
p139
S'the'
p140
sS'comapnies'
p141
S'companies'
p142
sS'chanegs'
p143
S'changes'
p144
sS'ga'
p145
S'go ahead'
p146
sS'paymetn'
p147
S'payment'
p148
sS'secratary'
p149
S'secretary'
p150
sS'indecate'
p151
S'indicate'
p152
sS'diferences'
p153
S'differences'
p154
sS'hth'
p155
S'hope that helps!'
p156
sS'outof'
p157
S'out of'
p158
sS'conferance'
p159
S'conference'
p160
sS'would of been'
p161
S'would have been'
p162
sS'recomendation'
p163
S'recommendation'
p164
sS'htis'
p165
S'this'
p166
sS'apparant'
p167
S'apparent'
p168
sS'bakc'
p169
S'back'
p170
sS'otoh'
p171
S'on the other hand'
p172
sS'mkaes'
p173
S'makes'
p174
sS'ohter'
p175
S'other'
p176
sS'convertable'
p177
S'convertible'
p178
sS'devellopment'
p179
S'development'
p180
sS'reluctent'
p181
S'reluctant'
p182
sS'allwasy'
p183
S'always'
p184
sS'cooparate'
p185
S'cooperate'
p186
sS'overthe'
p187
S'over the'
p188
sS'andone'
p189
S'and one'
p190
sS'obediant'
p191
S'obedient'
p192
sS'completness'
p193
S'completeness'
p194
sS'efort'
p195
S'effort'
p196
sS'comtain'
p197
g35
sS'charactor'
p198
S'character'
p199
sS'thisyear'
p200
S'this year'
p201
sS'espesially'
p202
S'especially'
p203
sS'doimg'
p204
g64
sS'shouldent'
p205
S"shouldn't"
p206
sS'imco'
p207
S'in my considered opinion'
p208
sS'danceing'
p209
S'dancing'
p210
sS'cula'
p211
S'see you later, alligator'
p212
sS'tntl'
p213
S'trying not to laugh'
p214
sS'arond'
p215
S'around'
p216
sS'caharcter'
p217
g199
sS'cpoy'
p218
S'copy'
p219
sS'disatisfied'
p220
S'dissatisfied'
p221
sS'themself'
p222
S'themselves'
p223
sS'hasbeen'
p224
S'has been'
p225
sS'owuld'
p226
S'would'
p227
sS'devellopments'
p228
S'developments'
p229
sS'bakerw0rk'
p230
S'baker-work'
p231
sS'ygti'
p232
S'you get the idea?'
p233
sS'influance'
p234
S'influence'
p235
sS'gruops'
p236
S'groups'
p237
sS'excellant'
p238
S'excellent'
p239
sS'wroking'
p240
S'working'
p241
sS'saidit'
p242
S'said it'
p243
sS'termoil'
p244
S'turmoil'
p245
sS'fwe'
p246
S'few'
p247
sS'don\\;t'
p248
S"don't"
p249
sS'presance'
p250
S'presence'
p251
sS'fianlly'
p252
S'finally'
p253
sS'quesions'
p254
S'questions'
p255
sS'challange'
p256
S'challenge'
p257
sS'thats'
p258
S"that's"
p259
sS'yaun'
p260
S'yet another unix nerd'
p261
sS'isn\\;t'
p262
S"isn't"
p263
sS'acheive'
p264
S'achieve'
p265
sS'artical'
p266
g20
sS'pciture'
p267
S'picture'
p268
sS'govenment'
p269
S'government'
p270
sS'reveiw'
p271
S'review'
p272
sS'smae'
p273
S'same'
p274
sS'specificaly'
p275
S'specifically'
p276
sS'immediatly'
p277
S'immediately'
p278
sS'gaurd'
p279
S'guard'
p280
sS'brb'
p281
S'be right back'
p282
sS'boxs'
p283
S'boxes'
p284
sS'firts'
p285
S'first'
p286
sS'occassion'
p287
S'occasion'
p288
sS'challanges'
p289
S'challenges'
p290
sS'fromthe'
p291
S'from the'
p292
sS'hismelf'
p293
S'himself'
p294
sS'beleiev'
p295
S'believe'
p296
sS'aquisitions'
p297
S'acquisitions'
p298
sS'htere'
p299
S'there'
p300
sS'diaplay'
p301
S'display'
p302
sS'eyt'
p303
S'yet'
p304
sS'insurence'
p305
S'insurance'
p306
sS'msg'
p307
S'message'
p308
sS'successfuly'
p309
S'successfully'
p310
sS'inthe'
p311
S'in the'
p312
sS'apparrent'
p313
g168
sS'familar'
p314
S'familiar'
p315
sS'recomendations'
p316
S'recommendations'
p317
sS'decisons'
p318
g82
sS'nver'
p319
S'never'
p320
sS'peices'
p321
S'pieces'
p322
sS'their are'
p323
S'there are'
p324
sS'claerly'
p325
S'clearly'
p326
sS'paymetns'
p327
S'payments'
p328
sS'librery'
p329
g128
sS'asdvertising'
p330
S'advertising'
p331
sS'traditionalyl'
p332
S'traditionally'
p333
sS'iwbni'
p334
S'it would be nice if'
p335
sS'they\\;l'
p336
S"they'll"
p337
sS'we\\;re'
p338
S"we're"
p339
sS'percentof'
p340
S'percent of'
p341
sS'wtih'
p342
S'with'
p343
sS"coudn't"
p344
S"couldn't"
p345
sS'ahve'
p346
S'have'
p347
sS'differnt'
p348
g106
sS'mb'
p349
S'megabytes'
p350
sS'haven\\;t'
p351
S"haven't"
p352
sS'claered'
p353
S'cleared'
p354
sS'tnx'
p355
S'thanks'
p356
sS'peolpe'
p357
S'people'
p358
sS'statments'
p359
S'statements'
p360
sS'selectoin'
p361
S'selection'
p362
sS'wiull'
p363
S'will'
p364
sS'whicht he'
p365
S'which the'
p366
sS'didnt'
p367
S"didn't"
p368
sS'hhos'
p369
S'ha ha only serious'
p370
sS"wo'nt"
p371
S"won't"
p372
sS'directers'
p373
S'directors'
p374
sS'mesages'
p375
S'messages'
p376
sS'may of had'
p377
S'may have had'
p378
sS'alreayd'
p379
g132
sS"let's him"
p380
S'lets him'
p381
sS'questioms'
p382
g255
sS'againstt he'
p383
S'against the'
p384
sS'taht'
p385
g4
sS'tecnical'
p386
S'technical'
p387
sS'sot hat'
p388
S'so that'
p389
sS'will of had'
p390
S'will have had'
p391
sS'lisense'
p392
S'license'
p393
sS'developors'
p394
S'developers'
p395
sS'necesary'
p396
S'necessary'
p397
sS'herat'
p398
S'heart'
p399
sS'must of been'
p400
S'must have been'
p401
sS'wouldn\\;t'
p402
S"wouldn't"
p403
sS'responsability'
p404
S'responsibility'
p405
sS'oging'
p406
S'going'
p407
sS'your a'
p408
S"you're a"
p409
sS'afk'
p410
S'away from the keyboard'
p411
sS'aamof'
p412
S'as a matter of fact'
p413
sS'calulated'
p414
S'calculated'
p415
sS'will of been'
p416
S'will have been'
p417
sS'stroy'
p418
S'story'
p419
sS'ttfn'
p420
S'ta ta for now'
p421
sS'alway'
p422
g184
sS"doens't"
p423
S"doesn't"
p424
sS'necesarily'
p425
S'necessarily'
p426
sS'disign'
p427
S'design'
p428
sS'haveing'
p429
S'having'
p430
sS'sucess'
p431
S'success'
p432
sS'resollution'
p433
S'resolution'
p434
sS'develloped'
p435
S'developed'
p436
sS'shouldnt'
p437
g206
sS'iswim'
p438
S'if you see what i mean'
p439
sS'ptogress'
p440
S'progress'
p441
sS'pleasent'
p442
S'pleasant'
p443
sS'he\\;ll'
p444
S"he'll"
p445
sS'benifit'
p446
S'benefit'
p447
sS'liveing'
p448
S'living'
p449
sS'witht he'
p450
S'with the'
p451
sS'oxident'
p452
S'oxidant'
p453
sS'devellop'
p454
S'develop'
p455
sS'your here'
p456
S"you're here"
p457
sS'fe'
p458
S'front end'
p459
sS'signifacnt'
p460
S'significant'
p461
sS'you\\;re'
p462
S"you're"
p463
sS'doe snot'
p464
S'does not'
p465
sS"do'nt"
p466
g249
sS'cmiiw'
p467
S"correct me if i'm wrong"
p468
sS"arn't"
p469
S"aren't"
p470
sS'hewas'
p471
S'he was'
p472
sS'occurence'
p473
g88
sS'afj'
p474
S"april fool's joke"
p475
sS'porblems'
p476
S'problems'
p477
sS'company\\;s'
p478
S"company's"
p479
sS'excitment'
p480
S'excitement'
p481
sS'recieved'
p482
S'received'
p483
sS'tlaking'
p484
S'talking'
p485
sS'effecient'
p486
S'efficient'
p487
sS'bykt'
p488
S'but you knew that'
p489
sS'themselfs'
p490
g223
sS'brodcast'
p491
S'broadcast'
p492
sS'otehr'
p493
g176
sS'secs'
p494
S'seconds'
p495
sS'simalar'
p496
S'similar'
p497
sS'dissonent'
p498
S'dissonant'
p499
sS'freebsd'
p500
S'free bsd'
p501
sS'memeber'
p502
S'member'
p503
sS'scsi'
p504
S'scuzy'
p505
sS'dispaly'
p506
g302
sS'aganist'
p507
S'against'
p508
sS'awgthtgtwta?'
p509
S'are we going to have to go through with this again?'
p510
sS'stopry'
p511
g419
sS'thansk'
p512
g356
sS'neccessarily'
p513
g426
sS'ygwypf'
p514
S'you get what you pay for'
p515
sS'liekd'
p516
S'liked'
p517
sS'exhcanges'
p518
S'exchanges'
p519
sS'ocur'
p520
S'occur'
p521
sS'becaus'
p522
S'because'
p523
sS'ymmv'
p524
S'your mileage may vary'
p525
sS'becuse'
p526
g523
sS'levle'
p527
S'level'
p528
sS'almsot'
p529
g46
sS'oft he'
p530
g72
sS'insted'
p531
S'instead'
p532
sS'konw'
p533
S'know'
p534
sS'hwich'
p535
S'which'
p536
sS'committments'
p537
S'commitments'
p538
sS'acomodate'
p539
S'accommodate'
p540
sS'beleive'
p541
g296
sS'ime'
p542
S'in my experience'
p543
sS'jic'
p544
S'just in case'
p545
sS'labratory'
p546
S'laboratory'
p547
sS'ptmm'
p548
S'please tell me more'
p549
sS'devellops'
p550
g455
sS'diffrent'
p551
g106
sS'imo'
p552
S'in my opinion'
p553
sS'poeple'
p554
g358
sS'quater'
p555
S'quarter'
p556
sS'thna'
p557
S'than'
p558
sS'specificalyl'
p559
g276
sS'realyl'
p560
S'really'
p561
sS'approrpiate'
p562
S'appropriate'
p563
sS'thne'
p564
S'then'
p565
sS'uok'
p566
S'are you ok?'
p567
sS'towrad'
p568
S'toward'
p569
sS'tomorow'
p570
S'tomorrow'
p571
sS'desicions'
p572
g82
sS'faetures'
p573
S'features'
p574
sS'accesories'
p575
S'accessories'
p576
sS'representives'
p577
S'representatives'
p578
sS'tje'
p579
g140
sS'knowldge'
p580
S'knowledge'
p581
sS'develope'
p582
g455
sS'grwo'
p583
S'grow'
p584
sS'tthe'
p585
g140
sS'hapen'
p586
S'happen'
p587
sS'becomeing'
p588
g124
sS'importent'
p589
S'important'
p590
sS'develeoprs'
p591
g395
sS'yoiu'
p592
S'you'
p593
sS'fammiliar'
p594
g315
sS'impossable'
p595
S'impossible'
p596
sS'int he'
p597
g312
sS'develpment'
p598
g180
sS'categiory'
p599
S'category'
p600
sS'thegovernment'
p601
S'the government'
p602
sS'especally'
p603
g203
sS'suprise'
p604
S'surprise'
p605
sS'chekc'
p606
S'check'
p607
sS'k3nny'
p608
S'kenny'
p609
sS'permanant'
p610
S'permanent'
p611
sS'56k'
p612
S'56 k'
p613
sS'threatend'
p614
S'threatened'
p615
sS'yiwgp'
p616
S'yes, i will go private'
p617
sS'neccessary'
p618
g397
sS'corproations'
p619
S'corporations'
p620
sS'embarass'
p621
S'embarrass'
p622
sS'didn\\;t'
p623
g368
sS'it\\;ll'
p624
S"it'll"
p625
sS'somethign'
p626
g48
sS'struggel'
p627
S'struggle'
p628
sS'changeing'
p629
S'changing'
p630
sS'doind'
p631
g64
sS'whic'
p632
g536
sS'tihs'
p633
g166
sS'fs'
p634
S'for sale'
p635
sS'simpyl'
p636
S'simply'
p637
sS'tafn'
p638
S"that's all for now"
p639
sS'desision'
p640
S'decision'
p641
sS'wuould'
p642
g227
sS"let's it"
p643
S'lets it'
p644
sS'arguements'
p645
S'arguments'
p646
sS'lthtt'
p647
S'laughing too hard to type'
p648
sS'd/l'
p649
S'download'
p650
sS'responsibile'
p651
S'responsible'
p652
sS'questoin'
p653
S'question'
p654
sS'approrpriate'
p655
g563
sS're'
p656
S'regreet'
p657
sS'what\\;s'
p658
S"what's"
p659
sS'saidhe'
p660
S'said he'
p661
sS'makeing'
p662
S'making'
p663
sS'fitb'
p664
S'fill in the blank'
p665
sS'rl'
p666
S'real life'
p667
sS'gonig'
p668
g407
sS'flyaway'
p669
S'fly away'
p670
sS'perminent'
p671
g611
sS'thatthe'
p672
S'that the'
p673
sS'totalyl'
p674
S'totally'
p675
sS'sceduled'
p676
S'scheduled'
p677
sS'porvide'
p678
S'provide'
p679
sS'fcfs'
p680
S'first come, first served'
p681
sS'giveing'
p682
S'giving'
p683
sS'pmfbi'
p684
S'pardon me for butting in'
p685
sS'imnsho'
p686
S'in my not so humble opinion'
p687
sS'addtional'
p688
S'additional'
p689
sS'especialyl'
p690
g203
sS'comittee'
p691
S'committee'
p692
sS'candidtaes'
p693
S'candidates'
p694
sS'ima'
p695
S'i might add'
p696
sS'fromt he'
p697
g292
sS'eforts'
p698
S'efforts'
p699
sS'almots'
p700
g46
sS"wern't"
p701
S"weren't"
p702
sS'wroet'
p703
S'wrote'
p704
sS'pregnent'
p705
S'pregnant'
p706
sS'couldthe'
p707
S'could the'
p708
sS'mesage'
p709
g308
sS'gmta'
p710
S'great minds think alike'
p711
sS'indenpendent'
p712
S'independent'
p713
sS'quetion'
p714
g654
sS'atm'
p715
S'at the moment'
p716
sS'comunicate'
p717
S'communicate'
p718
sS'personalyl'
p719
S'personally'
p720
sS'balence'
p721
S'balance'
p722
sS'tanstaafl'
p723
S"there ain't no such thing as a free lunch"
p724
sS'hhok'
p725
S'ha ha only kidding'
p726
sS'hhoj'
p727
S'ha ha only joking'
p728
sS'yuo'
p729
g593
sS'tahn'
p730
g558
sS'wihch'
p731
g536
sS'developor'
p732
S'developer'
p733
sS'audeince'
p734
S'audience'
p735
sS'lastyear'
p736
S'last year'
p737
sS'mysefl'
p738
S'myself'
p739
sS'cutsomer'
p740
S'customer'
p741
sS'unpleasently'
p742
S'unpleasantly'
p743
sS'dont'
p744
g249
sS'redhat'
p745
S'red hat'
p746
sS'mispelling'
p747
S'misspelling'
p748
sS'wtgp'
p749
S'want to go private?'
p750
sS'ihs'
p751
S'his'
p752
sS"woudln't"
p753
g403
sS'agreemnets'
p754
S'agreements'
p755
sS'undert he'
p756
S'under the'
p757
sS'tyhat'
p758
g4
sS'exchagnes'
p759
g519
sS'guidlines'
p760
S'guidelines'
p761
sS'idaes'
p762
S'ideas'
p763
sS'tkaing'
p764
S'taking'
p765
sS'deptartment'
p766
S'department'
p767
sS'thefirst'
p768
S'the first'
p769
sS'tath'
p770
g4
sS'aboutit'
p771
S'about it'
p772
sS'their is'
p773
S'there is'
p774
sS'hearign'
p775
S'hearing'
p776
sS'iac'
p777
S'in any case'
p778
sS'won\\;t'
p779
g372
sS'yiu'
p780
S'yes, i understand'
p781
sS'combintation'
p782
S'combination'
p783
sS'devellopers'
p784
g395
sS'responsable'
p785
g652
sS'stnad'
p786
S'stand'
p787
sS'withthe'
p788
g451
sS'tonihgt'
p789
S'tonight'
p790
sS'lol'
p791
S'laughing out loud'
p792
sS'independant'
p793
g713
sS'esad'
p794
S'eat shit and die'
p795
sS'benifits'
p796
S'benefits'
p797
sS'rsn'
p798
S'real soon now'
p799
sS"they're are"
p800
g324
sS'31337'
p801
S'eleet'
p802
sS'perhpas'
p803
S'perhaps'
p804
sS'probelm'
p805
S'problem'
p806
sS'ikwum'
p807
S'i know what you mean'
p808
sS'd00d'
p809
S'dood'
p810
sS'adequite'
p811
g60
sS'atthe'
p812
S'at the'
p813
sS'cya'
p814
S'see ya'
p815
sS'applicaitons'
p816
S'applications'
p817
sS'snafu'
p818
S'situation normal, all fouled up'
p819
sS'mantain'
p820
S'maintain'
p821
sS'appearence'
p822
S'appearance'
p823
sS'willbe'
p824
S'will be'
p825
sS'charector'
p826
g199
sS'iaw'
p827
S'in accordance with'
p828
sS'allwyas'
p829
g184
sS'orginization'
p830
S'organization'
p831
sS'corruptable'
p832
S'corruptible'
p833
sS'directiosn'
p834
S'direction'
p835
sS'konws'
p836
S'knows'
p837
sS'I\\;d'
p838
S"I'd"
p839
sS'imao'
p840
S'in my arrogant opinion'
p841
sS'pmf'
p842
S'pardon my french'
p843
sS'applicaiton'
p844
S'application'
p845
sS'useing'
p846
S'using'
p847
sS'afair'
p848
S'as far as i remember'
p849
sS'pncah'
p850
S'please, no cursing allowed here'
p851
sS'tyhe'
p852
g140
sS'cliant'
p853
S'client'
p854
sS'thigsn'
p855
S'things'
p856
sS'konwn'
p857
S'known'
p858
sS'consonent'
p859
S'consonant'
p860
sS'motos'
p861
S'member of the opposite sex'
p862
sS'here\\;s'
p863
S"here's"
p864
sS'indepedent'
p865
g713
sS'assistent'
p866
S'assistant'
p867
sS'atmospher'
p868
S'atmosphere'
p869
sS'hoyew'
p870
S'hanging on your every word'
p871
sS'wasnt'
p872
S"wasn't"
p873
sS'accordingto'
p874
S'according to'
p875
sS'nothign'
p876
S'nothing'
p877
sS'committment'
p878
S'commitment'
p879
sS'reconize'
p880
S'recognize'
p881
sS'idae'
p882
S'idea'
p883
sS'gerat'
p884
S'great'
p885
sS'respomd'
p886
S'respond'
p887
sS'didint'
p888
g368
sS'tyvm'
p889
S'thank you very much'
p890
sS'andt he'
p891
S'and the'
p892
sS'she\\;ll'
p893
S"she'll"
p894
sS'forwrd'
p895
S'forward'
p896
sS'itis'
p897
S'it is'
p898
sS"there's is"
p899
S'theirs is'
p900
sS'should of been'
p901
S'should have been'
p902
sS'additinal'
p903
g689
sS'somtimes'
p904
S'sometimes'
p905
sS'motas'
p906
S'member of the appropriate sex'
p907
sS'similiar'
p908
g497
sS'itwas'
p909
S'it was'
p910
sS'agressive'
p911
S'aggressive'
p912
sS'fora'
p913
S'for a'
p914
sS'develloping'
p915
S'developing'
p916
sS'knowlege'
p917
g581
sS'watn'
p918
S'want'
p919
sS'itnerested'
p920
S'interested'
p921
sS'postition'
p922
S'position'
p923
sS'werre'
p924
S'were'
p925
sS'independance'
p926
S'independence'
p927
sS'divsion'
p928
S'division'
p929
sS'comited'
p930
S'committed'
p931
sS'iyswim'
p932
g439
sS'cna'
p933
S'can'
p934
sS'shcool'
p935
S'school'
p936
sS'thta'
p937
g4
sS'thsi'
p938
g166
sS'feilds'
p939
S'fields'
p940
sS'peice'
p941
S'piece'
p942
sS'develloper'
p943
g733
sS"shoudln't"
p944
g206
sS'quaters'
p945
S'quarters'
p946
sS'sohw'
p947
S'show'
p948
sS'sincerly'
p949
S'sincerely'
p950
sS'indenpendence'
p951
g927
sS'veyr'
p952
S'very'
p953
sS'quesion'
p954
g654
sS'pwoer'
p955
S'power'
p956
sS'wherre'
p957
S'where'
p958
sS'alwyas'
p959
g184
sS'aggresive'
p960
g912
sS'andthe'
p961
g892
sS'hvaing'
p962
g430
sS'knwo'
p963
g534
sS'ttbomk'
p964
S'to the best of my knowledge'
p965
sS'rtm'
p966
S'read the manual'
p967
sS'opposit'
p968
S'opposite'
p969
sS'strugle'
p970
g628
sS'asthe'
p971
S'as the'
p972
sS'your his'
p973
S"you're his"
p974
sS'who\\;s'
p975
S"who's"
p976
sS'comany'
p977
S'company'
p978
sS'wehn'
p979
S'when'
p980
sS'tryed'
p981
S'tried'
p982
sS'togehter'
p983
S'together'
p984
sS'thetwo'
p985
S'the two'
p986
sS'exhcange'
p987
S'exchange'
p988
sS'soudns'
p989
S'sounds'
p990
sS'shineing'
p991
S'shining'
p992
sS'chnage'
p993
S'change'
p994
sS'shiped'
p995
S'shipped'
p996
sS'abotu'
p997
S'about'
p998
sS'where\\;s'
p999
S"where's"
p1000
sS'garantee'
p1001
S'guarantee'
p1002
sS'recomended'
p1003
S'recommended'
p1004
sS'excercise'
p1005
S'exercise'
p1006
sS'becuase'
p1007
g523
sS'sercumstances'
p1008
S'circumstances'
p1009
sS'hrm'
p1010
S'herm'
p1011
sS'foward'
p1012
g896
sS'jam'
p1013
S'just a minute'
p1014
sS'acheiving'
p1015
S'achieving'
p1016
sS'vulnerible'
p1017
S'vulnerable'
p1018
sS'libary'
p1019
g128
sS'appointiment'
p1020
S'appointment'
p1021
sS'owrk'
p1022
S'work'
p1023
sS'pstn'
p1024
S'p s t n'
p1025
sS'amde'
p1026
S'made'
p1027
sS'religous'
p1028
S'religious'
p1029
sS'reult'
p1030
S'result'
p1031
sS'maintenence'
p1032
S'maintenance'
p1033
sS'kyfc'
p1034
S'keep your fingers crossed'
p1035
sS'acommodate'
p1036
g540
sS'cotten'
p1037
S'cotton'
p1038
sS'tghis'
p1039
g166
sS'driveing'
p1040
S'driving'
p1041
sS'chaneg'
p1042
g994
sS'b4n'
p1043
S'bye for now'
p1044
sS'attentioin'
p1045
S'attention'
p1046
sS'whihc'
p1047
g536
sS'iow'
p1048
S'in other words'
p1049
sS'let\\;s'
p1050
S"let's"
p1051
sS'oppertunity'
p1052
S'opportunity'
p1053
sS'separeate'
p1054
S'separate'
p1055
sS'withe'
p1056
g343
sS'rtfm'
p1057
S'read the fecking manual'
p1058
sS'smoe'
p1059
S'some'
p1060
sS'witha'
p1061
S'with a'
p1062
sS'iyfeg'
p1063
S'insert your favorite ethnic group'
p1064
sS'colection'
p1065
S'collection'
p1066
sS'beleives'
p1067
S'believes'
p1068
sS'qa'
p1069
S'quality assurance'
p1070
sS'psoition'
p1071
g923
sS'w/o'
p1072
S'without'
p1073
sS'catagory'
p1074
g600
sS'bbialb'
p1075
S'be back in a little bit'
p1076
sS'beleived'
p1077
S'believed'
p1078
sS'onyl'
p1079
S'only'
p1080
sS'loev'
p1081
S'love'
p1082
sS'afterthe'
p1083
S'after the'
p1084
sS'bak'
p1085
S'back at keyboard'
p1086
sS'abbout'
p1087
g998
sS'btw'
p1088
S'by the way'
p1089
sS'papaer'
p1090
S'paper'
p1091
sS'freinds'
p1092
S'friends'
p1093
sS'sufficiant'
p1094
S'sufficient'
p1095
sS'your an'
p1096
S"you're an"
p1097
sS'oppotunity'
p1098
g1053
sS'consultent'
p1099
S'consultant'
p1100
sS'recieve'
p1101
g56
sS'bye?'
p1102
S'are you ready to say goodbye'
p1103
sS'bta'
p1104
S'but then again'
p1105
sS'imho'
p1106
S'in my humble opinion'
p1107
sS'moeny'
p1108
S'money'
p1109
sS'inital'
p1110
S'initial'
p1111
sS'htey'
p1112
g62
sS'enought'
p1113
S'enough'
p1114
sS'tongiht'
p1115
g790
sS'ijwts'
p1116
S'i just want to say'
p1117
sS'alwasy'
p1118
g184
sS'tellt he'
p1119
S'tell the'
p1120
sS'discoverd'
p1121
S'discovered'
p1122
sS'freindly'
p1123
S'friendly'
p1124
sS'irq'
p1125
S'i r q'
p1126
sS'aren\\;t'
p1127
g470
sS'iirc'
p1128
S'if i remember correctly'
p1129
sS'frmo'
p1130
S'from'
p1131
sS'agreemnet'
p1132
S'agreement'
p1133
sS'applyed'
p1134
S'applied'
p1135
sS'irl'
p1136
S'in real life'
p1137
sS'woh'
p1138
S'who'
p1139
sS'necassary'
p1140
g397
sS'condolances'
p1141
S'condolences'
p1142
sS'exprience'
p1143
S'experience'
p1144
sS'transfered'
p1145
S'transferred'
p1146
sS'they\\;ve'
p1147
S"they've"
p1148
sS'actualyl'
p1149
S'actually'
p1150
sS'rotflol'
p1151
S'rolling on the floor laughing out loud'
p1152
sS'wb'
p1153
S'welcome back'
p1154
sS'changable'
p1155
S'changeable'
p1156
sS'betwen'
p1157
S'between'
p1158
sS'hesaid'
p1159
S'he said'
p1160
sS'morgage'
p1161
S'mortgage'
p1162
sS'performence'
p1163
S'performance'
p1164
sS'confirmmation'
p1165
S'confirmation'
p1166
sS'yeras'
p1167
S'years'
p1168
sS'butthe'
p1169
S'but the'
p1170
sS'reserach'
p1171
S'research'
p1172
sS'wtb'
p1173
S'want to buy'
p1174
sS'recrod'
p1175
S'record'
p1176
sS'decison'
p1177
g641
sS'mkae'
p1178
S'make'
p1179
sS'wtf'
p1180
S'what the feck'
p1181
sS'conected'
p1182
S'connected'
p1183
sS'wth'
p1184
S'what the hell?'
p1185
sS'marraige'
p1186
S'marriage'
p1187
sS'pmji'
p1188
S'pardon my jumping in'
p1189
sS'wibni'
p1190
S'wouldn\t it be nice if'
p1191
sS'saidthe'
p1192
S'said the'
p1193
sS'issygti'
p1194
S"i'm so sure you get the idea!"
p1195
sS'developements'
p1196
g229
sS'gemeral'
p1197
S'general'
p1198
sS'committy'
p1199
g692
sS'perhasp'
p1200
g804
sS'bcnu'
p1201
S'be seeing you'
p1202
sS'ballance'
p1203
g722
sS'motss'
p1204
S'member of the same sex'
p1205
sS'iits the'
p1206
S"it's the"
p1207
sS'doign'
p1208
g64
sS'alot'
p1209
S'a lot'
p1210
sS'goverment'
p1211
g270
sS'orginized'
p1212
S'organized'
p1213
sS'mispell'
p1214
S'misspell'
p1215
sS'tnxe6'
p1216
S'thanks a million'
p1217
sS'your their'
p1218
S"you're their"
p1219
sS'becauseof'
p1220
S'because of'
p1221
sS'interum'
p1222
S'interim'
p1223
sS'shouldn\\;t'
p1224
g206
sS'we\\;ll'
p1225
S"we'll"
p1226
sS'wtg'
p1227
S'way to go!'
p1228
sS'improvment'
p1229
g22
sS'2nd'
p1230
S'second'
p1231
sS'its the'
p1232
g1207
sS'yersa'
p1233
g1168
sS'arguement'
p1234
S'argument'
p1235
sS'gruop'
p1236
S'group'
p1237
sS'developement'
p1238
g180
sS'kibo'
p1239
S'knowledge in, bullshit out'
p1240
sS'wdyt'
p1241
S'what do you think?'
p1242
sS'appeares'
p1243
S'appears'
p1244
sS'wief'
p1245
S'wife'
p1246
sS'bbl'
p1247
S'be back later'
p1248
sS'occured'
p1249
S'occurred'
p1250
sS'jsut'
p1251
S'just'
p1252
sS'differant'
p1253
g106
sS'learnign'
p1254
S'learning'
p1255
sS'wokr'
p1256
g1023
sS'ianal'
p1257
S'i am not a lawyer'
p1258
sS'talekd'
p1259
S'talked'
p1260
sS'candidtae'
p1261
S'candidate'
p1262
sS'wrt'
p1263
S'with regard to,  or with respect to'
p1264
sS'acheived'
p1265
S'achieved'
p1266
sS'iwll'
p1267
g364
sS'suposed'
p1268
S'supposed'
p1269
sS'pci'
p1270
S'p c i'
p1271
sS'resorces'
p1272
S'resources'
p1273
sS'importnat'
p1274
g590
sS'parliment'
p1275
S'parliament'
p1276
sS'nhoh'
p1277
S'never heard of him slash her'
p1278
sS'ctaegory'
p1279
g600
sS'befoer'
p1280
S'before'
p1281
sS'willg'
p1282
S'will g'
p1283
sS'equippment'
p1284
S'equipment'
p1285
sS'abouta'
p1286
S'about a'
p1287
sS'representativs'
p1288
g578
sS'likly'
p1289
S'likely'
p1290
sS'affraid'
p1291
S'afraid'
p1292
sS'imediate'
p1293
S'immediate'
p1294
sS'accidant'
p1295
S'accident'
p1296
sS'myu'
p1297
S'my'
p1298
sS'cieling'
p1299
S'ceiling'
p1300
sS'writting'
p1301
S'writing'
p1302
sS'iss'
p1303
S"i'm so sure"
p1304
sS'otf'
p1305
S'on the floor'
p1306
sS'otfl'
p1307
S'on the floor laughing'
p1308
sS'composate'
p1309
S'composite'
p1310
sS'hmm'
p1311
S'hurrmmm'
p1312
sS'respomse'
p1313
S'response'
p1314
sS'gal'
p1315
S'get a life'
p1316
sS'aywa'
p1317
S'away'
p1318
sS'liuke'
p1319
S'like'
p1320
sS'obtw'
p1321
S'oh, by the way'
p1322
sS'changng'
p1323
g630
sS'ljbf'
p1324
S"let's just be friends"
p1325
sS'thecompany'
p1326
S'the company'
p1327
sS'otu'
p1328
S'out'
p1329
sS'mispellings'
p1330
S'misspellings'
p1331
sS'^'
p1332
S'look up'
p1333
sS'amke'
p1334
g1179
sS'swiming'
p1335
S'swimming'
p1336
sS'rtbm'
p1337
S'read the bloody manual'
p1338
sS'xoxoxo'
p1339
S'kisses and hugs'
p1340
sS'forwrds'
p1341
g110
sS'udnerstand'
p1342
S'understand'
p1343
sS'tkae'
p1344
S'take'
p1345
sS'fud'
p1346
S'fear, uncertainty and doubt'
p1347
sS'giwist'
p1348
S"gee, i wish i'd said that"
p1349
sS'rehi'
p1350
S'hi again'
p1351
sS'hda'
p1352
S'had'
p1353
sS'sitll'
p1354
S'still'
p1355
sS'claer'
p1356
S'clear'
p1357
sS'rsvp'
p1358
S'please reply'
p1359
sS'motd'
p1360
S'message of the day'
p1361
sS'baout'
p1362
g998
sS'follwoing'
p1363
S'following'
p1364
sS'ip'
p1365
S'i p'
p1366
sS'questiosn'
p1367
g255
sS'itnerest'
p1368
S'interest'
p1369
sS'foudn'
p1370
S'found'
p1371
sS'fya'
p1372
S'for your amusement'
p1373
sS'bbfn'
p1374
S'bye bye for now'
p1375
sS'myob'
p1376
S'mind your own business'
p1377
sS'experiance'
p1378
g1144
sS'lin0x'
p1379
S'linux'
p1380
sS'exchagne'
p1381
g988
sS'rwite'
p1382
S'write'
p1383
sS'hadn\\;t'
p1384
S"hadn't"
p1385
sS'thesame'
p1386
S'the same'
p1387
sS'rythm'
p1388
S'rhythm'
p1389
sS'might of been'
p1390
S'might have been'
p1391
sS'firends'
p1392
g1093
sS'pnpisa'
p1393
S'p n p i s a'
p1394
sS'advanage'
p1395
S'advantage'
p1396
sS'ryfm'
p1397
S'read your friendly manual'
p1398
sS'difefrent'
p1399
g106
sS'anual'
p1400
S'annual'
p1401
sS'cooporate'
p1402
g186
sS'anbd'
p1403
S'and'
p1404
sS'wnat'
p1405
g919
sS'wierd'
p1406
S'weird'
p1407
sS'fidn'
p1408
S'find'
p1409
sS'follwo'
p1410
S'follow'
p1411
sS'fubar'
p1412
S'fecked up beyond all repair'
p1413
sS'shesaid'
p1414
S'she said'
p1415
sS'foaf'
p1416
S'friend of a friend'
p1417
sS'whent he'
p1418
S'when the'
p1419
sS'vrey'
p1420
g953
sS'agreemeent'
p1421
g1133
sS'amkes'
p1422
g174
sS'beleif'
p1423
S'belief'
p1424
sS'differance'
p1425
S'difference'
p1426
sS'cul8r'
p1427
S'see you later'
p1428
sS'thnig'
p1429
S'thing'
p1430
sS'definately'
p1431
S'definitely'
p1432
sS'oic'
p1433
S'oh, i see'
p1434
sS'managment'
p1435
S'management'
p1436
sS'thenew'
p1437
S'the new'
p1438
sS'identd'
p1439
S'ident d'
p1440
sS'charecter'
p1441
g199
sS'familliar'
p1442
g315
sS'sentance'
p1443
S'sentence'
p1444
sS'someting'
p1445
g48
sS'i snot'
p1446
S'is not'
p1447
sS'finalyl'
p1448
g253
sS'familair'
p1449
g315
sS'docuemnt'
p1450
g29
sS'potentialy'
p1451
S'potentially'
p1452
sS'agreemeents'
p1453
g755
sS'aquisition'
p1454
S'acquisition'
p1455
sS'gloabl'
p1456
S'global'
p1457
sS'thx'
p1458
g356
sS'certian'
p1459
S'certain'
p1460
sS'afaict'
p1461
S'as far as i can tell'
p1462
sS'responce'
p1463
g1314
sS'dtrt'
p1464
S'do the right thing'
p1465
sS'becausethe'
p1466
S'because the'
p1467
sS'it\\;s'
p1468
S"it's"
p1469
sS'responsiblity'
p1470
g405
sS'wya'
p1471
S'way'
p1472
sS'tothe'
p1473
S'to the'
p1474
sS'ne1'
p1475
S'anyone'
p1476
sS'hadbeen'
p1477
S'had been'
p1478
sS'restuarant'
p1479
S'restaurant'
p1480
sS'sec'
p1481
S'wait a second'
p1482
sS'l8r'
p1483
S'later'
p1484
sS'equivalant'
p1485
S'equivalent'
p1486
sS'i8urdog'
p1487
S'I ate your dog'
p1488
sS'soudn'
p1489
S'sound'
p1490
sS'corproation'
p1491
S'corporation'
p1492
sS'tcp'
p1493
S't c p'
p1494
sS'informatoin'
p1495
S'information'
p1496
sS'ofits'
p1497
S'of its'
p1498
sS'could of been'
p1499
S'could have been'
p1500
sS'opposate'
p1501
g969
sS'waht'
p1502
S'what'
p1503
sS'successfulyl'
p1504
g310
sS'thankx'
p1505
g356
sS'I"m'
p1506
S"I'm"
p1507
sS'identofy'
p1508
S'identify'
p1509
sS'virtualyl'
p1510
S'virtually'
p1511
sS'didnot'
p1512
S'did not'
p1513
sS'comtains'
p1514
S'contains'
p1515
sS'untilll'
p1516
S'until'
p1517
sS'knwon'
p1518
g858
sS'msot'
p1519
S'most'
p1520
sS'afaik'
p1521
S'as far as i know'
p1522
sS'reccomend'
p1523
S'recommend'
p1524
sS'yt'
p1525
S'are you there'
p1526
sS'foad'
p1527
S'feck off and die'
p1528
sS'drnik'
p1529
S'drink'
p1530
sS"don't no"
p1531
S"don't know"
p1532
sS'knwos'
p1533
g837
sS'adn'
p1534
S'any day now'
p1535
sS'percentto'
p1536
S'percent to'
p1537
sS'cul'
p1538
g1428
sS'accomodate'
p1539
g540
sS'geting'
p1540
g114
sS'ic'
p1541
S'i see'
p1542
sS'swim'
p1543
S'see what i mean?'
p1544
sS'...'
p1545
S'\\,'
p1546
sS'atention'
p1547
g1046
sS'gievn'
p1548
S'given'
p1549
sS"coudln't"
p1550
g345
sS"dosn't"
p1551
g424
sS'hte'
p1552
g140
sS'showinf'
p1553
S'showing'
p1554
sS'availalbe'
p1555
S'available'
p1556
sS'understnad'
p1557
g1343
sS'stpo'
p1558
S'stop'
p1559
sS'prominant'
p1560
S'prominent'
p1561
sS'truely'
p1562
S'truly'
p1563
sS'wiht'
p1564
g343
sS'mkaing'
p1565
g663
sS'exprienced'
p1566
S'experienced'
p1567
sS'they\\;re'
p1568
S"they're"
p1569
sS'Ameria'
p1570
S'America'
p1571
sS'whta'
p1572
g1503
sS'should of had'
p1573
S'should have had'
p1574
sS'inteh'
p1575
g312
sS'hp/ux'
p1576
S'hp ux'
p1577
sS'hge'
p1578
S'he'
p1579
sS'isthe'
p1580
S'is the'
p1581
sS'comntains'
p1582
g1515
sS'itnerests'
p1583
S'interests'
p1584
sS'soem'
p1585
g1060
sS'wnats'
p1586
S'wants'
p1587
sS'we\\;d'
p1588
S"we'd"
p1589
sS'esle'
p1590
S'else'
p1591
sS'alreday'
p1592
g132
sS'beleieve'
p1593
g296
sS'beggining'
p1594
S'beginning'
p1595
sS';-)'
p1596
S'winks'
p1597
sS'gd\\&r'
p1598
S'grinning, ducking and running'
p1599
sS'inwhich'
p1600
S'in which'
p1601
sS'quetions'
p1602
g255
sS'necassarily'
p1603
g426
sS'rotf'
p1604
S'rolling on the floor'
p1605
sS'jugment'
p1606
S'judgment'
p1607
sS'f2f'
p1608
S'face to face'
p1609
sS'compair'
p1610
S'compare'
p1611
sS'aboutthe'
p1612
S'about the'
p1613
sS'ahppen'
p1614
g587
sS'wohle'
p1615
S'whole'
p1616
sS'theyve'
p1617
g1148
sS'littel'
p1618
g122
sS'whcih'
p1619
g536
sS'andteh'
p1620
g892
sS'b4'
p1621
g1281
sS'tjhe'
p1622
g140
sS'lshmba'
p1623
S'laughing so hard my belly aches'
p1624
sS'studnet'
p1625
S'student'
p1626
sS'lieutenent'
p1627
S'lieutenant'
p1628
sS'omre'
p1629
S'more'
p1630
sS'porblem'
p1631
g806
sS'thier'
p1632
S'their'
p1633
sS'who\\;ve'
p1634
S"who've"
p1635
sS'ipx'
p1636
S'i p x'
p1637
sS'scedule'
p1638
S'schedule'
p1639
sS'totaly'
p1640
g675
sS'audiance'
p1641
g735
sS'they\\;ll'
p1642
g337
sS'compleatly'
p1643
S'completely'
p1644
sS'gd\\&wvvf'
p1645
S'grinning, ducking, and walking very, very fast'
p1646
sS'itneresting'
p1647
S'interesting'
p1648
sS'r u there?'
p1649
S'are you there?'
p1650
sS'puting'
p1651
S'putting'
p1652
sS'alwats'
p1653
g184
sS'opperation'
p1654
S'operation'
p1655
sS':-p'
p1656
g102
sS'thnigs'
p1657
g856
sS'completly'
p1658
g1644
sS"can't of been"
p1659
S"can't have been"
p1660
sS'bf'
p1661
S'boy friend'
p1662
sS'hsa'
p1663
S'has'
p1664
sS'hapening'
p1665
S'happening'
p1666
sS'asap'
p1667
S'as soon as possible'
p1668
sS'defendent'
p1669
S'defendant'
p1670
sS'hsi'
p1671
g752
sS'timne'
p1672
S'time'
p1673
sS'comapny'
p1674
g978
sS'comunity'
p1675
S'community'
p1676
sS'documnet'
p1677
g29
sS'thge'
p1678
g140
sS'yaba'
p1679
S'yet another bloody acronym'
p1680
sS'efel'
p1681
S'feel'
p1682
sS'recieving'
p1683
S'receiving'
p1684
sS'considerit'
p1685
g126
sS'windoes'
p1686
S'windows'
p1687
sS'feild'
p1688
S'field'
p1689
sS';)'
p1690
g1597
sS'anothe'
p1691
S'another'
p1692
sS'saidthat'
p1693
S'said that'
p1694
sS'onthe'
p1695
S'on the'
p1696
sS'differances'
p1697
g154
sS'obo'
p1698
S'or best offer'
p1699
sS':-)'
p1700
g10
sS'ok'
p1701
S'o k'
p1702
sS'commitee'
p1703
g692
sS'wouldnt'
p1704
g403
sS'ytou'
p1705
g593
sS'sectino'
p1706
S'section'
p1707
sS'awya'
p1708
g1318
sS'ltns'
p1709
S'long time no see'
p1710
sS'acn'
p1711
g934
sS'charachter'
p1712
g199
sS"you're own"
p1713
S'your own'
p1714
sS'cheif'
p1715
S'chief'
p1716
sS'ocasion'
p1717
g288
sS'documnets'
p1718
g78
sS'helpfull'
p1719
S'helpful'
p1720
sS'youve'
p1721
S"you've"
p1722
sS'warrent'
p1723
S'warrant'
p1724
sS'they\\;r'
p1725
g1569
sS'truley'
p1726
g1563
sS'they\\;v'
p1727
g1148
sS'beacuse'
p1728
g523
sS'opposible'
p1729
S'opposable'
p1730
sS'hapens'
p1731
S'happens'
p1732
sS'liek'
p1733
g1320
sS'lenght'
p1734
S'length'
p1735
sS'sol'
p1736
S'shit out of luck'
p1737
sS'statment'
p1738
S'statement'
p1739
sS'ppl'
p1740
g358
sS'strentgh'
p1741
S'strength'
p1742
sS'sos'
p1743
S'help!'
p1744
sS'doesnt'
p1745
g424
sS'liev'
p1746
S'live'
p1747
sS'dollers'
p1748
S'dollars'
p1749
sS'rtfaq'
p1750
S'read the frequently asked questions'
p1751
sS'doesn\\;t'
p1752
g424
sS'couldnt'
p1753
g345
sS'eligable'
p1754
S'eligible'
p1755
sS'iwth'
p1756
g343
sS'partof'
p1757
S'part of'
p1758
sS'I\\;ll'
p1759
S"I'll"
p1760
sS'ehr'
p1761
S'her'
p1762
sS'bcak'
p1763
g170
sS'..'
p1764
g1546
sS'theri'
p1765
g1633
sS'thatt he'
p1766
g673
sS'abscence'
p1767
S'absence'
p1768
sS'infomation'
p1769
g1496
sS'wrod'
p1770
S'word'
p1771
sS'becauseyou'
p1772
S'because you'
p1773
sS'includ'
p1774
S'include'
p1775
sS'calcullated'
p1776
g415
sS'beginining'
p1777
g1595
sS'furneral'
p1778
S'funeral'
p1779
sS'deatils'
p1780
S'details'
p1781
sS'agian'
p1782
S'again'
p1783
sS'lookign'
p1784
S'looking'
p1785
sS'faeture'
p1786
S'feature'
p1787
sS'woudl'
p1788
g227
sS'kb'
p1789
S'kilobytes'
p1790
sS'byt he'
p1791
S'by the'
p1792
sS'desicion'
p1793
g641
sS'may of been'
p1794
S'may have been'
p1795
sS'seh'
p1796
S'she'
p1797
sS'todya'
p1798
S'today'
p1799
sS'ititial'
p1800
g1111
sS'netbsd'
p1801
S'net bsd'
p1802
sS'seperate'
p1803
g1055
sS'ayt'
p1804
g1650
sS'doese'
p1805
S'does'
p1806
sS"it' snot"
p1807
g66
sS'ijwtk'
p1808
S'i just want to know'
p1809
sS'becasue'
p1810
g523
sS'instaleld'
p1811
S'installed'
p1812
sS'cu'
p1813
S'see you'
p1814
sS'wygiswypf'
p1815
S'what you get is what you pay for'
p1816
sS'peopel'
p1817
g358
sS'compleatness'
p1818
g194
sS'pmfji'
p1819
S'pardon me for jumping in'
p1820
sS'restaraunt'
p1821
g1480
sS'comanies'
p1822
g142
sS'haev'
p1823
g347
sS'begining'
p1824
g1595
sS'reommend'
p1825
g1524
sS'htese'
p1826
S'these'
p1827
sS'diku?'
p1828
S'do i know you?'
p1829
sS'stoyr'
p1830
g419
sS'directer'
p1831
S'director'
p1832
sS'somewaht'
p1833
S'somewhat'
p1834
sS'represetned'
p1835
S'represented'
p1836
sS'shoudl'
p1837
S'should'
p1838
sS'y/t'
p1839
g1526
sS'askt he'
p1840
S'ask the'
p1841
sS'cusotmer'
p1842
g741
sS'byom'
p1843
S'bring your own mac'
p1844
sS'hvae'
p1845
g347
sS'can\\;t'
p1846
S"can't"
p1847
sS'toldt he'
p1848
S'told the'
p1849
sS'openbsd'
p1850
S'open bsd'
p1851
sS'ad'
p1852
S'add'
p1853
sS'probelms'
p1854
g477
sS'distribusion'
p1855
S'distribution'
p1856
sS'kwim'
p1857
S'know what i mean?'
p1858
sS'bbiaf'
p1859
S'be back in a few'
p1860
sS'nkow'
p1861
g534
sS'circut'
p1862
S'circuit'
p1863
sS'bbiab'
p1864
S'be back in a bit'
p1865
sS'comming'
p1866
S'coming'
p1867
sS'tiogether'
p1868
g984
sS'wriet'
p1869
g1383
sS'rumers'
p1870
S'rumors'
p1871
sS'charachters'
p1872
S'characters'
p1873
sS'cusotmers'
p1874
S'customers'
p1875
sS'hapened'
p1876
g80
sS'foriegn'
p1877
S'foreign'
p1878
sS'ont he'
p1879
g1696
sS'goign'
p1880
g407
sS'isdn'
p1881
S'i s d n'
p1882
sS'recomend'
p1883
g1524
sS'soical'
p1884
S'social'
p1885
sS'fyi'
p1886
S'for your information'
p1887
sS'hasnt'
p1888
g2
sS"they're is"
p1889
g774
sS'oppasite'
p1890
g969
sS'could of had'
p1891
S'could have had'
p1892
sS'negotiaing'
p1893
S'negotiating'
p1894
sS'nah'
p1895
S'no'
p1896
sS'reveiwing'
p1897
S'reviewing'
p1898
sS'unliek'
p1899
S'unlike'
p1900
sS'accross'
p1901
S'across'
p1902
sS'oneof'
p1903
S'one of'
p1904
sS'mroe'
p1905
g1630
sS'n-tropy'
p1906
S'entropy'
p1907
sS'suppossed'
p1908
g1269
sS'htink'
p1909
S'think'
p1910
sS'tptb'
p1911
S'the powers that be'
p1912
sS'np'
p1913
S'no problem'
p1914
sS'hting'
p1915
g1430
sS'committe'
p1916
g692
sS'tia'
p1917
S'thanks in advance'
p1918
sS'tic'
p1919
S'tongue in cheek'
p1920
sS'at0mic_'
p1921
S'atomic'
p1922
sS'wouldbe'
p1923
S'would be'
p1924
sS'gf'
p1925
S'girl friend'
p1926
sS'possable'
p1927
S'possible'
p1928
sS'oeprator'
p1929
S'operator'
p1930
sS'compleated'
p1931
S'completed'
p1932
sS'reccommend'
p1933
g1524
sS'couldn\\;t'
p1934
g345
sS'speach'
p1935
S'speech'
p1936
sS'might of had'
p1937
S'might have had'
p1938
sS'cxan'
p1939
g934
sS'your your'
p1940
S"you're your"
p1941
sS'lonly'
p1942
S'lonely'
p1943
sS'your her'
p1944
S"you're her"
p1945
sS'experienc'
p1946
g1144
sS'cutsomers'
p1947
g1875
sS'imediatly'
p1948
g278
sS'onepoint'
p1949
S'one point'
p1950
sS'dvd'
p1951
S'd v d'
p1952
sS'tghe'
p1953
g140
sS'youare'
p1954
S'you are'
p1955
sS'sucessfull'
p1956
g43
sS'saidt he'
p1957
g1193
sS'must of had'
p1958
S'must have had'
p1959
sS'po0p'
p1960
S'poop'
p1961
sS'you\\;d'
p1962
S"you'd"
p1963
sS'theyll'
p1964
g337
sS'byob'
p1965
S'bring your own bottle'
p1966
sS'talkign'
p1967
g485
s.(dp1968
.