(dp0
S'iirc'
p1
S'if i remember correctly'
p2
sS'quazwork'
p3
S'quaz-work'
p4
sS':)'
p5
S'smiles'
p6
sS'inpo'
p7
S'in no particular order'
p8
sS'ttbomk'
p9
S'to the best of my knowledge'
p10
sS'rtm'
p11
S'read the manual'
p12
sS'ltns'
p13
S'long time no see'
p14
sS'gf'
p15
S'girl friend'
p16
sS':>'
p17
g6
sS'gb'
p18
S'gigabytes'
p19
sS'ga'
p20
S'go ahead'
p21
sS'netbsd'
p22
S'net bsd'
p23
sS'ttyl'
p24
S'talk to you later'
p25
sS'hrm'
p26
S'herm'
p27
sS'wdyt'
p28
S'what do you think?'
p29
sS'jam'
p30
S'just a minute'
p31
sS'pstn'
p32
S'p s t n'
p33
sS'fwiw'
p34
S"for what it's worth"
p35
sS'kyfc'
p36
S'keep your fingers crossed'
p37
sS'bykt'
p38
S'but you knew that'
p39
sS'rotfl'
p40
S'rolling on the floor laughing'
p41
sS'b4n'
p42
S'bye for now'
p43
sS':p'
p44
S'sticks tongue out'
p45
sS':-p'
p46
g45
sS'tanj'
p47
S"there ain't no justice"
p48
sS'kibo'
p49
S'knowledge in, bullshit out'
p50
sS'rtfm'
p51
S'read the fecking manual'
p52
sS'iyfeg'
p53
S'insert your favorite ethnic group'
p54
sS'qa'
p55
S'quality assurance'
p56
sS'w/o'
p57
S'without'
p58
sS'bbialb'
p59
S'be back in a little bit'
p60
sS'bak'
p61
S'back at keyboard'
p62
sS'btw'
p63
S'by the way'
p64
sS'ijwtk'
p65
S'i just want to know'
p66
sS'snafu'
p67
S'situation normal, all fouled up'
p68
sS'hth'
p69
S'hope that helps!'
p70
sS'pmf'
p71
S'pardon my french'
p72
sS'pncah'
p73
S'please, no cursing allowed here'
p74
sS'bta'
p75
S'but then again'
p76
sS'imho'
p77
S'in my humble opinion'
p78
sS'ijwts'
p79
S'i just want to say'
p80
sS'pmfbi'
p81
S'pardon me for butting in'
p82
sS'otoh'
p83
S'on the other hand'
p84
sS'irq'
p85
S'i r q'
p86
sS'giwist'
p87
S"gee, i wish i'd said that"
p88
sS'irl'
p89
S'in real life'
p90
sS'rotflol'
p91
S'rolling on the floor laughing out loud'
p92
sS'wb'
p93
S'welcome back'
p94
sS'imco'
p95
S'in my considered opinion'
p96
sS'cula'
p97
S'see you later, alligator'
p98
sS'tntl'
p99
S'trying not to laugh'
p100
sS'wtb'
p101
S'want to buy'
p102
sS'wtf'
p103
S'what the feck'
p104
sS'wtg'
p105
S'way to go!'
p106
sS'wth'
p107
S'what the hell?'
p108
sS'bakerw0rk'
p109
S'baker-work'
p110
sS'ygti'
p111
S'you get the idea?'
p112
sS'issygti'
p113
S"i'm so sure you get the idea!"
p114
sS'motss'
p115
S'member of the same sex'
p116
sS'tnxe6'
p117
S'thanks a million'
p118
sS'ne1'
p119
S'anyone'
p120
sS'yaun'
p121
S'yet another unix nerd'
p122
sS'I"m'
p123
S"I'm"
p124
sS'afaik'
p125
S'as far as i know'
p126
sS'2nd'
p127
S'second'
p128
sS'motos'
p129
S'member of the opposite sex'
p130
sS'ipx'
p131
S'i p x'
p132
sS'brb'
p133
S'be right back'
p134
sS'afair'
p135
S'as far as i remember'
p136
sS'ygwypf'
p137
S'you get what you pay for'
p138
sS'bbl'
p139
S'be back later'
p140
sS'ianal'
p141
S'i am not a lawyer'
p142
sS'nhoh'
p143
S'never heard of him slash her'
p144
sS'msg'
p145
S'message'
p146
sS'ayt'
p147
S'are you there?'
p148
sS'willg'
p149
S'will g'
p150
sS'imao'
p151
S'in my arrogant opinion'
p152
sS'otf'
p153
S'on the floor'
p154
sS'otfl'
p155
S'on the floor laughing'
p156
sS'hmm'
p157
S'hurrmmm'
p158
sS'gal'
p159
S'get a life'
p160
sS'iwbni'
p161
S'it would be nice if'
p162
sS'ljbf'
p163
S"let's just be friends"
p164
sS'ott'
p165
S'over the top'
p166
sS'^'
p167
S'look up'
p168
sS'rtbm'
p169
S'read the bloody manual'
p170
sS'mb'
p171
S'megabytes'
p172
sS'xoxoxo'
p173
S'kisses and hugs'
p174
sS'tnx'
p175
S'thanks'
p176
sS'fud'
p177
S'fear, uncertainty and doubt'
p178
sS'motd'
p179
S'message of the day'
p180
sS'ip'
p181
S'i p'
p182
sS'bcnu'
p183
S'be seeing you'
p184
sS'bbfn'
p185
S'bye bye for now'
p186
sS'wibni'
p187
S'wouldn\t it be nice if'
p188
sS'myob'
p189
S'mind your own business'
p190
sS'ic'
p191
S'i see'
p192
sS'lin0x'
p193
S'linux'
p194
sS'pnpisa'
p195
S'p n p i s a'
p196
sS'afj'
p197
S"april fool's joke"
p198
sS'afk'
p199
S'away from the keyboard'
p200
sS'ryfm'
p201
S'read your friendly manual'
p202
sS'aamof'
p203
S'as a matter of fact'
p204
sS'ttfn'
p205
S'ta ta for now'
p206
sS'fubar'
p207
S'fecked up beyond all repair'
p208
sS'foaf'
p209
S'friend of a friend'
p210
sS'foad'
p211
S'feck off and die'
p212
sS'fs'
p213
S'for sale'
p214
sS'iswim'
p215
S'if you see what i mean'
p216
sS'cul8r'
p217
S'see you later'
p218
sS'iow'
p219
S'in other words'
p220
sS'fitb'
p221
S'fill in the blank'
p222
sS'oic'
p223
S'oh, i see'
p224
sS'identd'
p225
S'ident d'
p226
sS'gmta'
p227
S'great minds think alike'
p228
sS'fe'
p229
S'front end'
p230
sS'cmiiw'
p231
S"correct me if i'm wrong"
p232
sS'thx'
p233
g176
sS'afaict'
p234
S'as far as i can tell'
p235
sS'secs'
p236
S'seconds'
p237
sS'freebsd'
p238
S'free bsd'
p239
sS'scsi'
p240
S'scuzy'
p241
sS'awgthtgtwta?'
p242
S'are we going to have to go through with this again?'
p243
sS'l8r'
p244
S'later'
p245
sS'i8urdog'
p246
S'I ate your dog'
p247
sS'tcp'
p248
S't c p'
p249
sS'ymmv'
p250
S'your mileage may vary'
p251
sS'thankx'
p252
g176
sS'ima'
p253
S'i might add'
p254
sS'ime'
p255
S'in my experience'
p256
sS'jic'
p257
S'just in case'
p258
sS'ptmm'
p259
S'please tell me more'
p260
sS'imo'
p261
S'in my opinion'
p262
sS'wrt'
p263
S'with regard to,  or with respect to'
p264
sS'pci'
p265
S'p c i'
p266
sS'adn'
p267
S'any day now'
p268
sS'cul'
p269
g218
sS'rehi'
p270
S'hi again'
p271
sS'rsvp'
p272
S'please reply'
p273
sS'swim'
p274
S'see what i mean?'
p275
sS'...'
p276
S'\\,'
p277
sS'fya'
p278
S'for your amusement'
p279
sS'fyi'
p280
S'for your information'
p281
sS'sol'
p282
S'shit out of luck'
p283
sS'Ameria'
p284
S'America'
p285
sS'yt'
p286
S'are you there'
p287
sS'k3nny'
p288
S'kenny'
p289
sS'gd\\&r'
p290
S'grinning, ducking and running'
p291
sS'yiwgp'
p292
S'yes, i will go private'
p293
sS'rotf'
p294
S'rolling on the floor'
p295
sS'f2f'
p296
S'face to face'
p297
sS'b4'
p298
S'before'
p299
sS'lshmba'
p300
S'laughing so hard my belly aches'
p301
sS'tafn'
p302
S"that's all for now"
p303
sS'lthtt'
p304
S'laughing too hard to type'
p305
sS'd/l'
p306
S'download'
p307
sS'uok'
p308
S'are you ok?'
p309
sS'gd\\&wvvf'
p310
S'grinning, ducking, and walking very, very fast'
p311
sS're'
p312
S'regreet'
p313
sS'r u there?'
p314
g148
sS'cu'
p315
S'see you'
p316
sS'rl'
p317
S'real life'
p318
sS'flyaway'
p319
S'fly away'
p320
sS'bf'
p321
S'boy friend'
p322
sS'asap'
p323
S'as soon as possible'
p324
sS'fcfs'
p325
S'first come, first served'
p326
sS'imnsho'
p327
S'in my not so humble opinion'
p328
sS'yaba'
p329
S'yet another bloody acronym'
p330
sS';)'
p331
S'winks'
p332
sS'obo'
p333
S'or best offer'
p334
sS':-)'
p335
g6
sS'ok'
p336
S'o k'
p337
sS'iss'
p338
S"i'm so sure"
p339
sS'hhos'
p340
S'ha ha only serious'
p341
sS'atm'
p342
S'at the moment'
p343
sS'ttksf'
p344
S'trying to keep a straight face'
p345
sS'tanstaafl'
p346
S"there ain't no such thing as a free lunch"
p347
sS'hhok'
p348
S'ha ha only kidding'
p349
sS'hhoj'
p350
S'ha ha only joking'
p351
sS'redhat'
p352
S'red hat'
p353
sS'wtgp'
p354
S'want to go private?'
p355
sS'hp/ux'
p356
S'hp ux'
p357
sS'ppl'
p358
S'people'
p359
sS'sos'
p360
S'help!'
p361
sS'56k'
p362
S'56 k'
p363
sS'lol'
p364
S'laughing out loud'
p365
sS'rtfaq'
p366
S'read the frequently asked questions'
p367
sS'..'
p368
g277
sS'iac'
p369
S'in any case'
p370
sS'yiu'
p371
S'yes, i understand'
p372
sS'iaw'
p373
S'in accordance with'
p374
sS'esad'
p375
S'eat shit and die'
p376
sS'hoyew'
p377
S'hanging on your every word'
p378
sS'rsn'
p379
S'real soon now'
p380
sS'31337'
p381
S'eleet'
p382
sS'ikwum'
p383
S'i know what you mean'
p384
sS'd00d'
p385
S'dood'
p386
sS'cya'
p387
S'see ya'
p388
sS'wygiswypf'
p389
S'what you get is what you pay for'
p390
sS'pmfji'
p391
S'pardon me for jumping in'
p392
sS'I\\;d'
p393
S"I'd"
p394
sS'byob'
p395
S'bring your own bottle'
p396
sS'diku?'
p397
S'do i know you?'
p398
sS'bye?'
p399
S'are you ready to say goodbye'
p400
sS'sec'
p401
S'wait a second'
p402
sS'pmji'
p403
S'pardon my jumping in'
p404
sS'y/t'
p405
g287
sS'byom'
p406
S'bring your own mac'
p407
sS'obtw'
p408
S'oh, by the way'
p409
sS'openbsd'
p410
S'open bsd'
p411
sS'ad'
p412
S'add'
p413
sS'kwim'
p414
S'know what i mean?'
p415
sS'bbiaf'
p416
S'be back in a few'
p417
sS'bbiab'
p418
S'be back in a bit'
p419
sS'isdn'
p420
S'i s d n'
p421
sS'tyvm'
p422
S'thank you very much'
p423
sS'nah'
p424
S'no'
p425
sS'n-tropy'
p426
S'entropy'
p427
sS'dtrt'
p428
S'do the right thing'
p429
sS'tptb'
p430
S'the powers that be'
p431
sS'np'
p432
S'no problem'
p433
sS'motas'
p434
S'member of the appropriate sex'
p435
sS'tia'
p436
S'thanks in advance'
p437
sS';-)'
p438
g332
sS'tic'
p439
S'tongue in cheek'
p440
sS'at0mic_'
p441
S'atomic'
p442
sS'iyswim'
p443
g216
sS'I\\;ll'
p444
S"I'll"
p445
sS'awc'
p446
S'after while, crocodile'
p447
sS'kb'
p448
S'kilobytes'
p449
sS'dvd'
p450
S'd v d'
p451
sS'po0p'
p452
S'poop'
p453
s.(dp454
S'hasn\\;t'
p455
S"hasn't"
p456
sS'your the'
p457
S"you're the"
p458
sS'its a'
p459
S"it's a"
p460
sS'remeber'
p461
S'remember'
p462
sS'fowards'
p463
S'forwards'
p464
sS'nwo'
p465
S'now'
p466
sS'would of had'
p467
S'would have had'
p468
sS'alomst'
p469
S'almost'
p470
sS'receieve'
p471
S'receive'
p472
sS'beutiful'
p473
S'beautiful'
p474
sS'ofthe'
p475
S'of the'
p476
sS'thsoe'
p477
S'those'
p478
sS'docuement'
p479
S'documents'
p480
sS'desisions'
p481
S'decisions'
p482
sS'theyve'
p483
S"they've"
p484
sS'differemt'
p485
S'different'
p486
sS'nwe'
p487
S'new'
p488
sS'commadn'
p489
S'command'
p490
sS'librarry'
p491
S'library'
p492
sS'alraedy'
p493
S'already'
p494
sS'teh'
p495
S'the'
p496
sS'undert he'
p497
S'under the'
p498
sS'chanegs'
p499
S'changes'
p500
sS'paymetn'
p501
S'payment'
p502
sS'diferences'
p503
S'differences'
p504
sS'outof'
p505
S'out of'
p506
sS'seh'
p507
S'she'
p508
sS'mkaes'
p509
S'makes'
p510
sS'devellopment'
p511
S'development'
p512
sS'allwasy'
p513
S'always'
p514
sS'overthe'
p515
S'over the'
p516
sS'andone'
p517
S'and one'
p518
sS'driveing'
p519
S'driving'
p520
sS'hda'
p521
S'had'
p522
sS'successfull'
p523
S'successful'
p524
sS'caharcter'
p525
S'character'
p526
sS'cpoy'
p527
S'copy'
p528
sS'themself'
p529
S'themselves'
p530
sS'devellopments'
p531
S'developments'
p532
sS'saidit'
p533
S'said it'
p534
sS'termoil'
p535
S'turmoil'
p536
sS'fwe'
p537
S'few'
p538
sS'don\\;t'
p539
S"don't"
p540
sS'fianlly'
p541
S'finally'
p542
sS'quesions'
p543
S'questions'
p544
sS'acheive'
p545
S'achieve'
p546
sS'artical'
p547
S'article'
p548
sS'pciture'
p549
S'picture'
p550
sS'smae'
p551
S'same'
p552
sS'specificaly'
p553
S'specifically'
p554
sS'firts'
p555
S'first'
p556
sS'occassion'
p557
S'occasion'
p558
sS'aquisitions'
p559
S'acquisitions'
p560
sS'htere'
p561
S'there'
p562
sS'eyt'
p563
S'yet'
p564
sS'tehy'
p565
S'they'
p566
sS'recomendations'
p567
S'recommendations'
p568
sS'decisons'
p569
g482
sS'nver'
p570
S'never'
p571
sS'their are'
p572
S'there are'
p573
sS'claerly'
p574
S'clearly'
p575
sS'paymetns'
p576
S'payments'
p577
sS'librery'
p578
g492
sS'we\\;re'
p579
S"we're"
p580
sS'haven\\;t'
p581
S"haven't"
p582
sS'claered'
p583
S'cleared'
p584
sS'peolpe'
p585
g359
sS'excellant'
p586
S'excellent'
p587
sS'directers'
p588
S'directors'
p589
sS'alreayd'
p590
g494
sS'taht'
p591
S'that'
p592
sS'sot hat'
p593
S'so that'
p594
sS'will of had'
p595
S'will have had'
p596
sS'necesary'
p597
S'necessary'
p598
sS'herat'
p599
S'heart'
p600
sS'must of been'
p601
S'must have been'
p602
sS'wouldn\\;t'
p603
S"wouldn't"
p604
sS'oging'
p605
S'going'
p606
sS'your a'
p607
S"you're a"
p608
sS'calulated'
p609
S'calculated'
p610
sS'neccessarily'
p611
S'necessarily'
p612
sS'stroy'
p613
S'story'
p614
sS"doens't"
p615
S"doesn't"
p616
sS'necesarily'
p617
g612
sS'disign'
p618
S'design'
p619
sS'actualyl'
p620
S'actually'
p621
sS'shouldnt'
p622
S"shouldn't"
p623
sS'ptogress'
p624
S'progress'
p625
sS'he\\;ll'
p626
S"he'll"
p627
sS'devellop'
p628
S'develop'
p629
sS'your here'
p630
S"you're here"
p631
sS'signifacnt'
p632
S'significant'
p633
sS'benifits'
p634
S'benefits'
p635
sS'occurence'
p636
S'occurrence'
p637
sS'porblems'
p638
S'problems'
p639
sS'company\\;s'
p640
S"company's"
p641
sS'excitment'
p642
S'excitement'
p643
sS'recieved'
p644
S'received'
p645
sS'what\\;s'
p646
S"what's"
p647
sS'themselfs'
p648
g530
sS'dissonent'
p649
S'dissonant'
p650
sS'memeber'
p651
S'member'
p652
sS'sincerly'
p653
S'sincerely'
p654
sS'liekd'
p655
S'liked'
p656
sS'becaus'
p657
S'because'
p658
sS'wa snot'
p659
S'was not'
p660
sS'oft he'
p661
g476
sS'insted'
p662
S'instead'
p663
sS'hwich'
p664
S'which'
p665
sS'wnat'
p666
S'want'
p667
sS'labratory'
p668
S'laboratory'
p669
sS'devellops'
p670
g629
sS'diffrent'
p671
g486
sS'quater'
p672
S'quarter'
p673
sS'thna'
p674
S'than'
p675
sS'specificalyl'
p676
g554
sS'realyl'
p677
S'really'
p678
sS'approrpiate'
p679
S'appropriate'
p680
sS'thne'
p681
S'then'
p682
sS'desicions'
p683
g482
sS'faetures'
p684
S'features'
p685
sS'knowldge'
p686
S'knowledge'
p687
sS'grwo'
p688
S'grow'
p689
sS'tthe'
p690
g496
sS'hapen'
p691
S'happen'
p692
sS'becomeing'
p693
S'becoming'
p694
sS'develeoprs'
p695
S'developers'
p696
sS'yoiu'
p697
S'you'
p698
sS'fammiliar'
p699
S'familiar'
p700
sS'impossable'
p701
S'impossible'
p702
sS'categiory'
p703
S'category'
p704
sS'especally'
p705
S'especially'
p706
sS'suprise'
p707
S'surprise'
p708
sS'permanant'
p709
S'permanent'
p710
sS'threatend'
p711
S'threatened'
p712
sS'neccessary'
p713
g598
sS'corproations'
p714
S'corporations'
p715
sS'embarass'
p716
S'embarrass'
p717
sS'gettin'
p718
S'getting'
p719
sS'struggel'
p720
S'struggle'
p721
sS'changeing'
p722
S'changing'
p723
sS'whic'
p724
g665
sS'tihs'
p725
S'this'
p726
sS'usualyl'
p727
S'usually'
p728
sS'desision'
p729
S'decision'
p730
sS"let's it"
p731
S'lets it'
p732
sS'responsibile'
p733
S'responsible'
p734
sS'saidhe'
p735
S'said he'
p736
sS'gonig'
p737
g606
sS'thatthe'
p738
S'that the'
p739
sS'totalyl'
p740
S'totally'
p741
sS'sceduled'
p742
S'scheduled'
p743
sS'porvide'
p744
S'provide'
p745
sS'especialyl'
p746
g706
sS'thenew'
p747
S'the new'
p748
sS'almots'
p749
g470
sS"wern't"
p750
S"weren't"
p751
sS'asdvertising'
p752
S'advertising'
p753
sS'statments'
p754
S'statements'
p755
sS'personalyl'
p756
S'personally'
p757
sS'balence'
p758
S'balance'
p759
sS'tahn'
p760
g675
sS'wihch'
p761
g665
sS'someting'
p762
S'something'
p763
sS'differnt'
p764
g486
sS'unpleasently'
p765
S'unpleasantly'
p766
sS'dont'
p767
g540
sS'agreemnets'
p768
S'agreements'
p769
sS'hte'
p770
g496
sS'tkaing'
p771
S'taking'
p772
sS'thefirst'
p773
S'the first'
p774
sS'tath'
p775
g592
sS'their is'
p776
S'there is'
p777
sS'hearign'
p778
S'hearing'
p779
sS'won\\;t'
p780
S"won't"
p781
sS'combintation'
p782
S'combination'
p783
sS'responsable'
p784
g734
sS'tonihgt'
p785
S'tonight'
p786
sS'gerat'
p787
S'great'
p788
sS'withthe'
p789
S'with the'
p790
sS'werre'
p791
S'were'
p792
sS'prominant'
p793
S'prominent'
p794
sS'willbe'
p795
S'will be'
p796
sS'charector'
p797
g526
sS'allwyas'
p798
g514
sS'orginization'
p799
S'organization'
p800
sS'corruptable'
p801
S'corruptible'
p802
sS'useing'
p803
S'using'
p804
sS'consonent'
p805
S'consonant'
p806
sS'here\\;s'
p807
S"here's"
p808
sS'indepedent'
p809
S'independent'
p810
sS'assistent'
p811
S'assistant'
p812
sS'jsut'
p813
S'just'
p814
sS'talekd'
p815
S'talked'
p816
sS'wasnt'
p817
S"wasn't"
p818
sS'nothign'
p819
S'nothing'
p820
sS'committment'
p821
S'commitment'
p822
sS'she\\;ll'
p823
S"she'll"
p824
sS"there's is"
p825
S'theirs is'
p826
sS'reult'
p827
S'result'
p828
sS'somtimes'
p829
S'sometimes'
p830
sS'hge'
p831
S'he'
p832
sS'agressive'
p833
S'aggressive'
p834
sS'knowlege'
p835
g687
sS'watn'
p836
g667
sS'wnated'
p837
S'wanted'
p838
sS'feilds'
p839
S'fields'
p840
sS'foriegn'
p841
S'foreign'
p842
sS'indenpendence'
p843
S'independence'
p844
sS'applicaitons'
p845
S'applications'
p846
sS'pwoer'
p847
S'power'
p848
sS'andthe'
p849
S'and the'
p850
sS'documetn'
p851
S'document'
p852
sS'knwo'
p853
S'know'
p854
sS'opposit'
p855
S'opposite'
p856
sS'asthe'
p857
S'as the'
p858
sS'tkaes'
p859
S'takes'
p860
sS'who\\;s'
p861
S"who's"
p862
sS'comany'
p863
S'company'
p864
sS'abouta'
p865
S'about a'
p866
sS'thetwo'
p867
S'the two'
p868
sS'shineing'
p869
S'shining'
p870
sS'chnage'
p871
S'change'
p872
sS'thnig'
p873
S'thing'
p874
sS'garantee'
p875
S'guarantee'
p876
sS'excercise'
p877
S'exercise'
p878
sS'acheiving'
p879
S'achieving'
p880
sS'vulnerible'
p881
S'vulnerable'
p882
sS'libary'
p883
g492
sS'traditionalyl'
p884
S'traditionally'
p885
sS'oppotunities'
p886
S'opportunities'
p887
sS'insurence'
p888
S'insurance'
p889
sS'maintenence'
p890
S'maintenance'
p891
sS'tghis'
p892
g726
sS'obediant'
p893
S'obedient'
p894
sS'chaneg'
p895
g872
sS'beleive'
p896
S'believe'
p897
sS'representives'
p898
S'representatives'
p899
sS'let\\;s'
p900
S"let's"
p901
sS'withe'
p902
S'with'
p903
sS'comtain'
p904
S'contain'
p905
sS'witha'
p906
S'with a'
p907
sS'psoition'
p908
S'position'
p909
sS'afterthe'
p910
S'after the'
p911
sS'abbout'
p912
S'about'
p913
sS'papaer'
p914
S'paper'
p915
sS'sufficiant'
p916
S'sufficient'
p917
sS"they're are"
p918
g573
sS'recieve'
p919
g472
sS'moeny'
p920
S'money'
p921
sS'applicaiton'
p922
S'application'
p923
sS'tongiht'
p924
g786
sS'wrod'
p925
S'word'
p926
sS'alwasy'
p927
g514
sS'discoverd'
p928
S'discovered'
p929
sS'freindly'
p930
S'friendly'
p931
sS'developor'
p932
S'developer'
p933
sS'aggresive'
p934
g834
sS'havebeen'
p935
S'have been'
p936
sS'agreemnet'
p937
S'agreement'
p938
sS'woh'
p939
S'who'
p940
sS'necassary'
p941
g598
sS'devellopers'
p942
g696
sS'soem'
p943
S'some'
p944
sS'changable'
p945
S'changeable'
p946
sS'hesaid'
p947
S'he said'
p948
sS'morgage'
p949
S'mortgage'
p950
sS'performence'
p951
S'performance'
p952
sS'reserach'
p953
S'research'
p954
sS'perhasp'
p955
S'perhaps'
p956
sS'mkae'
p957
S'make'
p958
sS'becausea'
p959
S'because a'
p960
sS'developements'
p961
g532
sS'foudn'
p962
S'found'
p963
sS'ballance'
p964
g759
sS'iits the'
p965
S"it's the"
p966
sS'alot'
p967
S'a lot'
p968
sS'goverment'
p969
S'government'
p970
sS'mispell'
p971
S'misspell'
p972
sS'interum'
p973
S'interim'
p974
sS'shouldn\\;t'
p975
g623
sS'improvment'
p976
S'improvement'
p977
sS'its the'
p978
g966
sS'appeares'
p979
S'appears'
p980
sS'danceing'
p981
S'dancing'
p982
sS'atmospher'
p983
S'atmosphere'
p984
sS'differant'
p985
g486
sS'wokr'
p986
S'work'
p987
sS'acheived'
p988
S'achieved'
p989
sS'iwll'
p990
S'will'
p991
sS'resorces'
p992
S'resources'
p993
sS'importnat'
p994
S'important'
p995
sS'tjhe'
p996
g496
sS'representativs'
p997
g899
sS'likly'
p998
S'likely'
p999
sS'recomend'
p1000
S'recommend'
p1001
sS'imediate'
p1002
S'immediate'
p1003
sS'cieling'
p1004
S'ceiling'
p1005
sS'writting'
p1006
S'writing'
p1007
sS'beleieve'
p1008
g897
sS'respomse'
p1009
S'response'
p1010
sS'onyl'
p1011
S'only'
p1012
sS'changng'
p1013
g723
sS'thecompany'
p1014
S'the company'
p1015
sS'udnerstand'
p1016
S'understand'
p1017
sS'convertable'
p1018
S'convertible'
p1019
sS'claer'
p1020
S'clear'
p1021
sS'timne'
p1022
S'time'
p1023
sS'questiosn'
p1024
g544
sS'itnerest'
p1025
S'interest'
p1026
sS'developors'
p1027
g696
sS'firends'
p1028
S'friends'
p1029
sS'rwite'
p1030
S'write'
p1031
sS'hadn\\;t'
p1032
S"hadn't"
p1033
sS'rythm'
p1034
S'rhythm'
p1035
sS'advanage'
p1036
S'advantage'
p1037
sS'anual'
p1038
S'annual'
p1039
sS'tothe'
p1040
S'to the'
p1041
sS'committments'
p1042
S'commitments'
p1043
sS'wierd'
p1044
S'weird'
p1045
sS'vrey'
p1046
S'very'
p1047
sS'againstt he'
p1048
S'against the'
p1049
sS'somethign'
p1050
g763
sS'managment'
p1051
S'management'
p1052
sS'eforts'
p1053
S'efforts'
p1054
sS'familliar'
p1055
g700
sS'sentance'
p1056
S'sentence'
p1057
sS'mesage'
p1058
g146
sS'finalyl'
p1059
g542
sS'familair'
p1060
g700
sS'your your'
p1061
S"you're your"
p1062
sS'potentialy'
p1063
S'potentially'
p1064
sS'inital'
p1065
S'initial'
p1066
sS'gloabl'
p1067
S'global'
p1068
sS"it' snot"
p1069
S"it's not"
p1070
sS'becausethe'
p1071
S'because the'
p1072
sS'colection'
p1073
S'collection'
p1074
sS'equivalant'
p1075
S'equivalent'
p1076
sS'soudn'
p1077
S'sound'
p1078
sS'corproation'
p1079
S'corporation'
p1080
sS'ofits'
p1081
S'of its'
p1082
sS'waht'
p1083
S'what'
p1084
sS'successfulyl'
p1085
S'successfully'
p1086
sS'exprienced'
p1087
S'experienced'
p1088
sS'identofy'
p1089
S'identify'
p1090
sS'virtualyl'
p1091
S'virtually'
p1092
sS'marraige'
p1093
S'marriage'
p1094
sS'askt he'
p1095
S'ask the'
p1096
sS'percentto'
p1097
S'percent to'
p1098
sS"coudln't"
p1099
S"couldn't"
p1100
sS"dosn't"
p1101
g616
sS'showinf'
p1102
S'showing'
p1103
sS'stpo'
p1104
S'stop'
p1105
sS'truely'
p1106
S'truly'
p1107
sS'wiht'
p1108
g903
sS'andteh'
p1109
g850
sS'they\\;re'
p1110
S"they're"
p1111
sS'seperate'
p1112
S'separate'
p1113
sS'isthe'
p1114
S'is the'
p1115
sS'wnats'
p1116
S'wants'
p1117
sS'we\\;d'
p1118
S"we'd"
p1119
sS'alreday'
p1120
g494
sS'develloping'
p1121
S'developing'
p1122
sS'inwhich'
p1123
S'in which'
p1124
sS'quetions'
p1125
g544
sS'wohle'
p1126
S'whole'
p1127
sS'littel'
p1128
S'little'
p1129
sS'almsot'
p1130
g470
sS'lieutenent'
p1131
S'lieutenant'
p1132
sS'omre'
p1133
S'more'
p1134
sS'who\\;ve'
p1135
S"who've"
p1136
sS'gaurd'
p1137
S'guard'
p1138
sS'scedule'
p1139
S'schedule'
p1140
sS'totaly'
p1141
g741
sS'they\\;ll'
p1142
S"they'll"
p1143
sS'compleatly'
p1144
S'completely'
p1145
sS'itneresting'
p1146
S'interesting'
p1147
sS'puting'
p1148
S'putting'
p1149
sS'cna'
p1150
S'can'
p1151
sS'thnigs'
p1152
S'things'
p1153
sS'completly'
p1154
g1145
sS'improvemnt'
p1155
g977
sS'hsa'
p1156
S'has'
p1157
sS'hsi'
p1158
S'his'
p1159
sS'divsion'
p1160
S'division'
p1161
sS'thge'
p1162
g496
sS'efel'
p1163
S'feel'
p1164
sS'presance'
p1165
S'presence'
p1166
sS'considerit'
p1167
S'considerate'
p1168
sS'feild'
p1169
S'field'
p1170
sS'compleated'
p1171
S'completed'
p1172
sS'challanges'
p1173
S'challenges'
p1174
sS'onthe'
p1175
S'on the'
p1176
sS'differances'
p1177
g504
sS'percentof'
p1178
S'percent of'
p1179
sS'wouldnt'
p1180
g604
sS'ytou'
p1181
g698
sS'thatt he'
p1182
g739
sS"you're own"
p1183
S'your own'
p1184
sS'warrent'
p1185
S'warrant'
p1186
sS'truley'
p1187
g1107
sS'dispaly'
p1188
S'display'
p1189
sS'opposible'
p1190
S'opposable'
p1191
sS'liek'
p1192
S'like'
p1193
sS'statment'
p1194
S'statement'
p1195
sS'importent'
p1196
g995
sS'liev'
p1197
S'live'
p1198
sS'it\\;ll'
p1199
S"it'll"
p1200
sS'iwth'
p1201
g903
sS'partof'
p1202
S'part of'
p1203
sS'represnt'
p1204
S'represent'
p1205
sS'responsiblity'
p1206
S'responsibility'
p1207
sS'bcak'
p1208
S'back'
p1209
sS'abscence'
p1210
S'absence'
p1211
sS'tyhat'
p1212
g592
sS'includ'
p1213
S'include'
p1214
sS'hewas'
p1215
S'he was'
p1216
sS'thsi'
p1217
g726
sS'respomd'
p1218
S'respond'
p1219
sS'should of been'
p1220
S'should have been'
p1221
sS'fora'
p1222
S'for a'
p1223
sS'itnerested'
p1224
S'interested'
p1225
sS'todya'
p1226
S'today'
p1227
sS'strugle'
p1228
g721
sS'htis'
p1229
g726
sS'geting'
p1230
g719
sS'peopel'
p1231
g359
sS'compleatness'
p1232
S'completeness'
p1233
sS'restaraunt'
p1234
S'restaurant'
p1235
sS'reommend'
p1236
g1001
sS'tellt he'
p1237
S'tell the'
p1238
sS'condolances'
p1239
S'condolences'
p1240
sS'directer'
p1241
S'director'
p1242
sS'somewaht'
p1243
S'somewhat'
p1244
sS'studnet'
p1245
S'student'
p1246
sS'cusotmer'
p1247
S'customer'
p1248
sS'toldt he'
p1249
S'told the'
p1250
sS'ont he'
p1251
g1176
sS'exchagnes'
p1252
S'exchanges'
p1253
sS'distribusion'
p1254
S'distribution'
p1255
sS'forwrd'
p1256
S'forward'
p1257
sS'comming'
p1258
S'coming'
p1259
sS'tiogether'
p1260
S'together'
p1261
sS'wriet'
p1262
g1031
sS'hapened'
p1263
S'happened'
p1264
sS'probelm'
p1265
S'problem'
p1266
sS'goign'
p1267
g606
sS'reluctent'
p1268
S'reluctant'
p1269
sS'theyll'
p1270
g1143
sS'could of had'
p1271
S'could have had'
p1272
sS'veyr'
p1273
g1047
sS'opposate'
p1274
g856
sS'can\\;t'
p1275
S"can't"
p1276
sS'htink'
p1277
S'think'
p1278
sS'hting'
p1279
g874
sS'becuase'
p1280
g658
sS'helpfull'
p1281
S'helpful'
p1282
sS'develope'
p1283
g629
sS'oeprator'
p1284
S'operator'
p1285
sS'could of been'
p1286
S'could have been'
p1287
sS'speach'
p1288
S'speech'
p1289
sS'your her'
p1290
S"you're her"
p1291
sS'cutsomers'
p1292
S'customers'
p1293
sS'onepoint'
p1294
S'one point'
p1295
sS'tghe'
p1296
g496
sS'thgat'
p1297
g592
sS'forthe'
p1298
S'for the'
p1299
sS'articel'
p1300
g548
sS'bve'
p1301
S'be'
p1302
sS'comntain'
p1303
g905
sS'coudl'
p1304
S'could'
p1305
sS'shouldent'
p1306
g623
sS'dcument'
p1307
g852
sS'somthing'
p1308
g763
sS'yera'
p1309
S'year'
p1310
sS'isn\\;t'
p1311
S"isn't"
p1312
sS'adequit'
p1313
S'adequate'
p1314
sS'successfuly'
p1315
g1086
sS'donig'
p1316
S'doing'
p1317
sS'it snot'
p1318
g1070
sS'happend'
p1319
g1264
sS'pleasent'
p1320
S'pleasant'
p1321
sS'occurrance'
p1322
g637
sS'we\\;ve'
p1323
S"we've"
p1324
sS'freind'
p1325
S'friend'
p1326
sS'levle'
p1327
S'level'
p1328
sS'conspiricy'
p1329
S'conspiracy'
p1330
sS'anothe'
p1331
S'another'
p1332
sS'yuor'
p1333
S'your'
p1334
sS'didn\\;t'
p1335
S"didn't"
p1336
sS'suprised'
p1337
S'surprised'
p1338
sS'simpyl'
p1339
S'simply'
p1340
sS"can't of been"
p1341
S"can't have been"
p1342
sS'becomming'
p1343
g694
sS'considerite'
p1344
g1168
sS'your my'
p1345
S"you're my"
p1346
sS'merchent'
p1347
S'merchant'
p1348
sS'hlep'
p1349
S'help'
p1350
sS'comapnies'
p1351
S'companies'
p1352
sS'idaes'
p1353
S'ideas'
p1354
sS'secratary'
p1355
S'secretary'
p1356
sS'indecate'
p1357
S'indicate'
p1358
sS'conferance'
p1359
S'conference'
p1360
sS'would of been'
p1361
S'would have been'
p1362
sS'recomendation'
p1363
S'recommendation'
p1364
sS'bakc'
p1365
g1209
sS'ohter'
p1366
S'other'
p1367
sS'selectoin'
p1368
S'selection'
p1369
sS'appointiment'
p1370
S'appointment'
p1371
sS'completness'
p1372
g1233
sS'efort'
p1373
S'effort'
p1374
sS'disatisfied'
p1375
S'dissatisfied'
p1376
sS'charactor'
p1377
g526
sS'thisyear'
p1378
S'this year'
p1379
sS'doimg'
p1380
g1317
sS'it\\;s'
p1381
S"it's"
p1382
sS'arond'
p1383
S'around'
p1384
sS'didnot'
p1385
S'did not'
p1386
sS'hasbeen'
p1387
S'has been'
p1388
sS'owuld'
p1389
S'would'
p1390
sS'influance'
p1391
S'influence'
p1392
sS'gruops'
p1393
S'groups'
p1394
sS'whicht he'
p1395
S'which the'
p1396
sS'wroking'
p1397
S'working'
p1398
sS'sitll'
p1399
S'still'
p1400
sS'challange'
p1401
S'challenge'
p1402
sS'thats'
p1403
S"that's"
p1404
sS'govenment'
p1405
g970
sS'mesages'
p1406
S'messages'
p1407
sS'immediatly'
p1408
S'immediately'
p1409
sS'defendent'
p1410
S'defendant'
p1411
sS'boxs'
p1412
S'boxes'
p1413
sS'beleiev'
p1414
g897
sS'infomation'
p1415
S'information'
p1416
sS'inthe'
p1417
S'in the'
p1418
sS'apparrent'
p1419
S'apparent'
p1420
sS'familar'
p1421
g700
sS'peices'
p1422
S'pieces'
p1423
sS'commitee'
p1424
S'committee'
p1425
sS'wtih'
p1426
g903
sS"coudn't"
p1427
g1100
sS'ahve'
p1428
S'have'
p1429
sS'apparant'
p1430
g1420
sS'cooparate'
p1431
S'cooperate'
p1432
sS'wiull'
p1433
g991
sS'didnt'
p1434
g1336
sS"wo'nt"
p1435
g781
sS'reveiw'
p1436
S'review'
p1437
sS'may of had'
p1438
S'may have had'
p1439
sS"let's him"
p1440
S'lets him'
p1441
sS'tecnical'
p1442
S'technical'
p1443
sS'lisense'
p1444
S'license'
p1445
sS'tlaking'
p1446
S'talking'
p1447
sS'equippment'
p1448
S'equipment'
p1449
sS'alway'
p1450
g514
sS'parliment'
p1451
S'parliament'
p1452
sS'haveing'
p1453
S'having'
p1454
sS'sucess'
p1455
S'success'
p1456
sS'resollution'
p1457
S'resolution'
p1458
sS'sercumstances'
p1459
S'circumstances'
p1460
sS'benifit'
p1461
S'benefit'
p1462
sS'witht he'
p1463
g790
sS'oxident'
p1464
S'oxidant'
p1465
sS'you\\;re'
p1466
S"you're"
p1467
sS"do'nt"
p1468
g540
sS"arn't"
p1469
S"aren't"
p1470
sS'directiosn'
p1471
S'direction'
p1472
sS'attentioin'
p1473
S'attention'
p1474
sS'effecient'
p1475
S'efficient'
p1476
sS'brodcast'
p1477
S'broadcast'
p1478
sS'otehr'
p1479
g1367
sS'simalar'
p1480
S'similar'
p1481
sS'beacuse'
p1482
g658
sS'aganist'
p1483
S'against'
p1484
sS'stopry'
p1485
g614
sS'will of been'
p1486
S'will have been'
p1487
sS'exhcanges'
p1488
g1253
sS'ocur'
p1489
S'occur'
p1490
sS'cotten'
p1491
S'cotton'
p1492
sS'becuse'
p1493
g658
sS'konw'
p1494
g854
sS'acomodate'
p1495
S'accommodate'
p1496
sS'poeple'
p1497
g359
sS'affraid'
p1498
S'afraid'
p1499
sS'towrad'
p1500
S'toward'
p1501
sS'tomorow'
p1502
S'tomorrow'
p1503
sS'accesories'
p1504
S'accessories'
p1505
sS'tje'
p1506
g496
sS'follwo'
p1507
S'follow'
p1508
sS'doe snot'
p1509
S'does not'
p1510
sS'shoudl'
p1511
S'should'
p1512
sS'int he'
p1513
g1418
sS'develpment'
p1514
g512
sS'thegovernment'
p1515
S'the government'
p1516
sS'separeate'
p1517
g1113
sS'ahppen'
p1518
g692
sS'chekc'
p1519
S'check'
p1520
sS'haev'
p1521
g1429
sS'dollers'
p1522
S'dollars'
p1523
sS'doind'
p1524
g1317
sS'oppertunity'
p1525
S'opportunity'
p1526
sS'wuould'
p1527
g1390
sS'arguements'
p1528
S'arguments'
p1529
sS'sucessfull'
p1530
g524
sS'approrpriate'
p1531
g680
sS'makeing'
p1532
S'making'
p1533
sS'smoe'
p1534
g944
sS'perminent'
p1535
g710
sS'giveing'
p1536
S'giving'
p1537
sS'addtional'
p1538
S'additional'
p1539
sS'comittee'
p1540
g1425
sS'candidtaes'
p1541
S'candidates'
p1542
sS'fromt he'
p1543
S'from the'
p1544
sS'necassarily'
p1545
g612
sS'wroet'
p1546
S'wrote'
p1547
sS'pregnent'
p1548
S'pregnant'
p1549
sS'couldthe'
p1550
S'could the'
p1551
sS'indenpendent'
p1552
g810
sS'quetion'
p1553
S'question'
p1554
sS'comunicate'
p1555
S'communicate'
p1556
sS'reconize'
p1557
S'recognize'
p1558
sS'yuo'
p1559
g698
sS'audeince'
p1560
S'audience'
p1561
sS'lastyear'
p1562
S'last year'
p1563
sS'mysefl'
p1564
S'myself'
p1565
sS'cutsomer'
p1566
g1248
sS'ihs'
p1567
g1159
sS"woudln't"
p1568
g604
sS'beggining'
p1569
S'beginning'
p1570
sS'guidlines'
p1571
S'guidelines'
p1572
sS'deptartment'
p1573
S'department'
p1574
sS'aboutit'
p1575
S'about it'
p1576
sS'aboutthe'
p1577
S'about the'
p1578
sS'exprience'
p1579
S'experience'
p1580
sS'perhpas'
p1581
g956
sS'independant'
p1582
g810
sS'atention'
p1583
g1474
sS'atthe'
p1584
S'at the'
p1585
sS'mantain'
p1586
S'maintain'
p1587
sS'appearence'
p1588
S'appearance'
p1589
sS'confirmmation'
p1590
S'confirmation'
p1591
sS'unliek'
p1592
S'unlike'
p1593
sS'konws'
p1594
S'knows'
p1595
sS'enought'
p1596
S'enough'
p1597
sS'tyhe'
p1598
g496
sS'cliant'
p1599
S'client'
p1600
sS'thigsn'
p1601
g1153
sS'konwn'
p1602
S'known'
p1603
sS'doign'
p1604
g1317
sS'whcih'
p1605
g665
sS'developement'
p1606
g512
sS'aywa'
p1607
S'away'
p1608
sS'idae'
p1609
S'idea'
p1610
sS'andt he'
p1611
g850
sS'byt he'
p1612
S'by the'
p1613
sS'additinal'
p1614
g1539
sS'similiar'
p1615
g1481
sS'itwas'
p1616
S'it was'
p1617
sS'htey'
p1618
g566
sS'wehn'
p1619
S'when'
p1620
sS'may of been'
p1621
S'may have been'
p1622
sS'postition'
p1623
g909
sS'independance'
p1624
g844
sS'documnet'
p1625
g852
sS'comited'
p1626
S'committed'
p1627
sS'shcool'
p1628
S'school'
p1629
sS'thta'
p1630
g592
sS'baout'
p1631
g913
sS'peice'
p1632
S'piece'
p1633
sS'develloper'
p1634
g933
sS"shoudln't"
p1635
g623
sS'quaters'
p1636
S'quarters'
p1637
sS'sohw'
p1638
S'show'
p1639
sS'develloped'
p1640
S'developed'
p1641
sS'quesion'
p1642
g1554
sS'wherre'
p1643
S'where'
p1644
sS'alwyas'
p1645
g514
sS'hvaing'
p1646
g1454
sS'frmo'
p1647
S'from'
p1648
sS'your his'
p1649
S"you're his"
p1650
sS'tryed'
p1651
S'tried'
p1652
sS'togehter'
p1653
g1261
sS'exhcange'
p1654
S'exchange'
p1655
sS'shiped'
p1656
S'shipped'
p1657
sS'abotu'
p1658
g913
sS'where\\;s'
p1659
S"where's"
p1660
sS'recomended'
p1661
S'recommended'
p1662
sS'foward'
p1663
g1257
sS'owrk'
p1664
g987
sS'amde'
p1665
S'made'
p1666
sS'religous'
p1667
S'religious'
p1668
sS'liveing'
p1669
S'living'
p1670
sS'acommodate'
p1671
g1496
sS'windoes'
p1672
S'windows'
p1673
sS'whihc'
p1674
g665
sS'accidant'
p1675
S'accident'
p1676
sS'transfered'
p1677
S'transferred'
p1678
sS'beleives'
p1679
S'believes'
p1680
sS'catagory'
p1681
g704
sS'beleived'
p1682
S'believed'
p1683
sS'befoer'
p1684
g299
sS'freinds'
p1685
g1029
sS'your an'
p1686
S"you're an"
p1687
sS'oppotunity'
p1688
g1526
sS'consultent'
p1689
S'consultant'
p1690
sS'mispellings'
p1691
S'misspellings'
p1692
sS'aren\\;t'
p1693
g1470
sS'stnad'
p1694
S'stand'
p1695
sS'applyed'
p1696
S'applied'
p1697
sS'comapny'
p1698
g864
sS'thansk'
p1699
g176
sS'betwen'
p1700
S'between'
p1701
sS'yeras'
p1702
S'years'
p1703
sS'butthe'
p1704
S'but the'
p1705
sS'recrod'
p1706
S'record'
p1707
sS'orginized'
p1708
S'organized'
p1709
sS'conected'
p1710
S'connected'
p1711
sS'saidthe'
p1712
S'said the'
p1713
sS'committy'
p1714
g1425
sS'committe'
p1715
g1425
sS'charecter'
p1716
g526
sS'decison'
p1717
g730
sS'your their'
p1718
S"you're their"
p1719
sS'becauseof'
p1720
S'because of'
p1721
sS'we\\;ll'
p1722
S"we'll"
p1723
sS'yersa'
p1724
g1703
sS'arguement'
p1725
S'argument'
p1726
sS'gruop'
p1727
S'group'
p1728
sS'alwats'
p1729
g514
sS'doese'
p1730
S'does'
p1731
sS'wief'
p1732
S'wife'
p1733
sS'occured'
p1734
S'occurred'
p1735
sS'learnign'
p1736
S'learning'
p1737
sS'candidtae'
p1738
S'candidate'
p1739
sS'suposed'
p1740
S'supposed'
p1741
sS'ctaegory'
p1742
g704
sS'they\\;ve'
p1743
g484
sS'circut'
p1744
S'circuit'
p1745
sS'questioms'
p1746
g544
sS'composate'
p1747
S'composite'
p1748
sS'questoin'
p1749
g1554
sS'espesially'
p1750
g706
sS'liuke'
p1751
g1193
sS'otu'
p1752
S'out'
p1753
sS'amke'
p1754
g958
sS'swiming'
p1755
S'swimming'
p1756
sS'responsability'
p1757
g1207
sS'forwrds'
p1758
g464
sS'tkae'
p1759
S'take'
p1760
sS'hapening'
p1761
S'happening'
p1762
sS'follwoing'
p1763
S'following'
p1764
sS'experiance'
p1765
g1580
sS'exchagne'
p1766
g1655
sS'thesame'
p1767
S'the same'
p1768
sS'begining'
p1769
g1570
sS'might of been'
p1770
S'might have been'
p1771
sS'cooporate'
p1772
g1432
sS'anbd'
p1773
S'and'
p1774
sS'fidn'
p1775
S'find'
p1776
sS'esle'
p1777
S'else'
p1778
sS'shesaid'
p1779
S'she said'
p1780
sS'whent he'
p1781
S'when the'
p1782
sS'oneof'
p1783
S'one of'
p1784
sS'agreemeent'
p1785
g938
sS'amkes'
p1786
g510
sS'beleif'
p1787
S'belief'
p1788
sS'differance'
p1789
S'difference'
p1790
sS'definately'
p1791
S'definitely'
p1792
sS'i snot'
p1793
S'is not'
p1794
sS'docuemnt'
p1795
g852
sS'agreemeents'
p1796
g769
sS'aquisition'
p1797
S'acquisition'
p1798
sS'certian'
p1799
S'certain'
p1800
sS'accordingto'
p1801
S'according to'
p1802
sS'responce'
p1803
g1010
sS'didint'
p1804
g1336
sS'wya'
p1805
S'way'
p1806
sS'hadbeen'
p1807
S'had been'
p1808
sS'restuarant'
p1809
g1235
sS'informatoin'
p1810
g1416
sS'accross'
p1811
S'across'
p1812
sS'loev'
p1813
S'love'
p1814
sS'ocasion'
p1815
g558
sS'untilll'
p1816
S'until'
p1817
sS'knwon'
p1818
g1603
sS'msot'
p1819
S'most'
p1820
sS'reccomend'
p1821
g1001
sS'drnik'
p1822
S'drink'
p1823
sS"don't no"
p1824
S"don't know"
p1825
sS'knwos'
p1826
g1595
sg267
g1774
sS'accomodate'
p1827
g1496
sS'gievn'
p1828
S'given'
p1829
sS'availalbe'
p1830
S'available'
p1831
sS'mkaing'
p1832
g1533
sS'whta'
p1833
g1084
sS'should of had'
p1834
S'should have had'
p1835
sS'inteh'
p1836
g1418
sS'comntains'
p1837
S'contains'
p1838
sS'itnerests'
p1839
S'interests'
p1840
sS'jugment'
p1841
S'judgment'
p1842
sS'compair'
p1843
S'compare'
p1844
sS'comtains'
p1845
g1838
sS'ititial'
p1846
g1066
sS'represetned'
p1847
S'represented'
p1848
sS'nkow'
p1849
g854
sS'porblem'
p1850
g1266
sS'thier'
p1851
S'their'
p1852
sS'mispelling'
p1853
S'misspelling'
p1854
sS'audiance'
p1855
g1561
sS'youare'
p1856
S'you are'
p1857
sS'opperation'
p1858
S'operation'
p1859
sS'litttle'
p1860
g1129
sS'diaplay'
p1861
g1189
sS'comunity'
p1862
S'community'
p1863
sS'recieving'
p1864
S'receiving'
p1865
sS'saidthat'
p1866
S'said that'
p1867
sS'they\\;l'
p1868
g1143
sS'furneral'
p1869
S'funeral'
p1870
sS'sectino'
p1871
S'section'
p1872
sS'awya'
p1873
g1608
sS'acn'
p1874
g1151
sS'charachter'
p1875
g526
sS'cheif'
p1876
S'chief'
p1877
sS'documnets'
p1878
g480
sS'youve'
p1879
S"you've"
p1880
sS'they\\;r'
p1881
g1111
sS'they\\;v'
p1882
g484
sS'hapens'
p1883
S'happens'
p1884
sS'lenght'
p1885
S'length'
p1886
sS'strentgh'
p1887
S'strength'
p1888
sS'soudns'
p1889
S'sounds'
p1890
sS'doesnt'
p1891
g616
sS'doesn\\;t'
p1892
g616
sS'couldnt'
p1893
g1100
sS'eligable'
p1894
S'eligible'
p1895
sS'ehr'
p1896
S'her'
p1897
sS'theri'
p1898
g1852
sS'becauseyou'
p1899
S'because you'
p1900
sS'calcullated'
p1901
g610
sS'beginining'
p1902
g1570
sS'deatils'
p1903
S'details'
p1904
sS'agian'
p1905
S'again'
p1906
sS'lookign'
p1907
S'looking'
p1908
sS'faeture'
p1909
S'feature'
p1910
sS'woudl'
p1911
g1390
sS'desicion'
p1912
g730
sS'gemeral'
p1913
S'general'
p1914
sS'becasue'
p1915
g658
sS'instaleld'
p1916
S'installed'
p1917
sS'comanies'
p1918
g1352
sS'htese'
p1919
S'these'
p1920
sS'stoyr'
p1921
g614
sS'understnad'
p1922
g1017
sS'itis'
p1923
S'it is'
p1924
sS'hismelf'
p1925
S'himself'
p1926
sS'hvae'
p1927
g1429
sS'probelms'
p1928
g639
sS'myu'
p1929
S'my'
p1930
sS'rumers'
p1931
S'rumors'
p1932
sS'charachters'
p1933
S'characters'
p1934
sS'cusotmers'
p1935
g1293
sS'difefrent'
p1936
g486
sS'fromthe'
p1937
g1544
sS'soical'
p1938
S'social'
p1939
sS'hasnt'
p1940
g456
sS"they're is"
p1941
g777
sS'oppasite'
p1942
g856
sS'negotiaing'
p1943
S'negotiating'
p1944
sS'reveiwing'
p1945
S'reviewing'
p1946
sS'mroe'
p1947
g1134
sS'adequite'
p1948
g1314
sS'wouldbe'
p1949
S'would be'
p1950
sS'possable'
p1951
S'possible'
p1952
sS'reccommend'
p1953
g1001
sS'couldn\\;t'
p1954
g1100
sS'might of had'
p1955
S'might have had'
p1956
sS'cxan'
p1957
g1151
sS'lonly'
p1958
S'lonely'
p1959
sS'experienc'
p1960
g1580
sS'imediatly'
p1961
g1409
sS'saidt he'
p1962
g1713
sS'must of had'
p1963
S'must have had'
p1964
sS'suppossed'
p1965
g1741
sS'you\\;d'
p1966
S"you'd"
p1967
sS'talkign'
p1968
g1447
s.