(dp0
S'hasn\\;t'
p1
S"hasn't"
p2
sS'thgat'
p3
S'that'
p4
sS'quazwork'
p5
S'quaz-work'
p6
sS':)'
p7
S'smiles'
p8
sS'inpo'
p9
S'in no particular order'
p10
sS'your the'
p11
S"you're the"
p12
sS'ijwts'
p13
S'i just want to say'
p14
sS'its a'
p15
S"it's a"
p16
sS'articel'
p17
S'article'
p18
sS'pstn'
p19
S'p s t n'
p20
sS'remeber'
p21
S'remember'
p22
sS'nwe'
p23
S'new'
p24
sS':>'
p25
g8
sS'hvaing'
p26
S'having'
p27
sS'gb'
p28
S'gigabytes'
p29
sS'bve'
p30
S'be'
p31
sS'comntain'
p32
S'contain'
p33
sS'rl'
p34
S'real life'
p35
sS'coudl'
p36
S'could'
p37
sS'nwo'
p38
S'now'
p39
sS'would of had'
p40
S'would have had'
p41
sS'appointiment'
p42
S'appointment'
p43
sS'successfull'
p44
S'successful'
p45
sS'dcument'
p46
S'document'
p47
sS'alomst'
p48
S'almost'
p49
sS'somthing'
p50
S'something'
p51
sS'audeince'
p52
S'audience'
p53
sS'ttyl'
p54
S'talk to you later'
p55
sS'yera'
p56
S'year'
p57
sS'receieve'
p58
S'receive'
p59
sS'tntl'
p60
S'trying not to laugh'
p61
sS'forthe'
p62
S'for the'
p63
sS'adequit'
p64
S'adequate'
p65
sS'tehy'
p66
S'they'
p67
sS'donig'
p68
S'doing'
p69
sS'it snot'
p70
S"it's not"
p71
sS"they're is"
p72
S'there is'
p73
sS'xoxoxo'
p74
S'kisses and hugs'
p75
sS'hrm'
p76
S'herm'
p77
sS'fwiw'
p78
S"for what it's worth"
p79
sS'beutiful'
p80
S'beautiful'
p81
sS'ofthe'
p82
S'of the'
p83
sS'thsoe'
p84
S'those'
p85
sS'docuement'
p86
S'documents'
p87
sS'happend'
p88
S'happened'
p89
sS'desisions'
p90
S'decisions'
p91
sS'byom'
p92
S'bring your own mac'
p93
sS'your his'
p94
S"you're his"
p95
sS'occurrance'
p96
S'occurrence'
p97
sS'we\\;ve'
p98
S"we've"
p99
sS'swiming'
p100
S'swimming'
p101
sS'freind'
p102
S'friend'
p103
sS'rotfl'
p104
S'rolling on the floor laughing'
p105
sS'wa snot'
p106
S'was not'
p107
sS'ga'
p108
S'go ahead'
p109
sS'conspiricy'
p110
S'conspiracy'
p111
sS':p'
p112
S'sticks tongue out'
p113
sS'differemt'
p114
S'different'
p115
sS'afk'
p116
S'away from the keyboard'
p117
sS'fowards'
p118
S'forwards'
p119
sS'yuor'
p120
S'your'
p121
sS'gettin'
p122
S'getting'
p123
sS'commadn'
p124
S'command'
p125
sS'suprised'
p126
S'surprised'
p127
sS'usualyl'
p128
S'usually'
p129
sS"can't of been"
p130
S"can't have been"
p131
sS'becomming'
p132
S'becoming'
p133
sS'considerite'
p134
S'considerate'
p135
sS'librarry'
p136
S'library'
p137
sS'your my'
p138
S"you're my"
p139
sS'alraedy'
p140
S'already'
p141
sS'merchent'
p142
S'merchant'
p143
sS'ttksf'
p144
S'trying to keep a straight face'
p145
sS'hlep'
p146
S'help'
p147
sS'teh'
p148
S'the'
p149
sS'undert he'
p150
S'under the'
p151
sS'chanegs'
p152
S'changes'
p153
sS'idaes'
p154
S'ideas'
p155
sS'paymetn'
p156
S'payment'
p157
sS'secratary'
p158
S'secretary'
p159
sS'indecate'
p160
S'indicate'
p161
sS'diferences'
p162
S'differences'
p163
sS'hth'
p164
S'hope that helps!'
p165
sS'fs'
p166
S'for sale'
p167
sS'outof'
p168
S'out of'
p169
sS'conferance'
p170
S'conference'
p171
sS'would of been'
p172
S'would have been'
p173
sS'exhcange'
p174
S'exchange'
p175
sS'apparant'
p176
S'apparent'
p177
sS'bakc'
p178
S'back'
p179
sS'otoh'
p180
S'on the other hand'
p181
sS'mkaes'
p182
S'makes'
p183
sS'ohter'
p184
S'other'
p185
sS'fud'
p186
S'fear, uncertainty and doubt'
p187
sS'devellopment'
p188
S'development'
p189
sS'allwasy'
p190
S'always'
p191
sS'cooparate'
p192
S'cooperate'
p193
sS'overthe'
p194
S'over the'
p195
sS'andone'
p196
S'and one'
p197
sS'obediant'
p198
S'obedient'
p199
sS'completness'
p200
S'completeness'
p201
sS'efort'
p202
S'effort'
p203
sS'comtain'
p204
g33
sS'rtbm'
p205
S'read the bloody manual'
p206
sS'charactor'
p207
S'character'
p208
sS'thisyear'
p209
S'this year'
p210
sS'alwasy'
p211
g191
sS'shouldent'
p212
S"shouldn't"
p213
sS'imco'
p214
S'in my considered opinion'
p215
sS'itwas'
p216
S'it was'
p217
sS'mkae'
p218
S'make'
p219
sS'arond'
p220
S'around'
p221
sS'caharcter'
p222
g208
sS'cpoy'
p223
S'copy'
p224
sS'themself'
p225
S'themselves'
p226
sS'hasbeen'
p227
S'has been'
p228
sS'owuld'
p229
S'would'
p230
sS'devellopments'
p231
S'developments'
p232
sS'bakerw0rk'
p233
S'baker-work'
p234
sS'ygti'
p235
S'you get the idea?'
p236
sS'influance'
p237
S'influence'
p238
sS'gruops'
p239
S'groups'
p240
sS'whicht he'
p241
S'which the'
p242
sS'wroking'
p243
S'working'
p244
sS'saidit'
p245
S'said it'
p246
sS'addtional'
p247
S'additional'
p248
sS'fwe'
p249
S'few'
p250
sS'don\\;t'
p251
S"don't"
p252
sS'recieving'
p253
S'receiving'
p254
sS'fianlly'
p255
S'finally'
p256
sS'quesions'
p257
S'questions'
p258
sS'gf'
p259
S'girl friend'
p260
sS'challange'
p261
S'challenge'
p262
sS'thats'
p263
S"that's"
p264
sS'yaun'
p265
S'yet another unix nerd'
p266
sS'isn\\;t'
p267
S"isn't"
p268
sS'acheive'
p269
S'achieve'
p270
sS'artical'
p271
g18
sS'pciture'
p272
S'picture'
p273
sS'govenment'
p274
S'government'
p275
sS'reveiw'
p276
S'review'
p277
sS'cmiiw'
p278
S"correct me if i'm wrong"
p279
sS'smae'
p280
S'same'
p281
sS'specificaly'
p282
S'specifically'
p283
sS'immediatly'
p284
S'immediately'
p285
sS'gaurd'
p286
S'guard'
p287
sS';)'
p288
S'winks'
p289
sS'boxs'
p290
S'boxes'
p291
sS'firts'
p292
S'first'
p293
sS'occassion'
p294
S'occasion'
p295
sS'saidthat'
p296
S'said that'
p297
sS'knwos'
p298
S'knows'
p299
sS'po0p'
p300
S'poop'
p301
sS'beleiev'
p302
S'believe'
p303
sS'aquisitions'
p304
S'acquisitions'
p305
sS'htere'
p306
S'there'
p307
sS'eyt'
p308
S'yet'
p309
sS'wehn'
p310
S'when'
p311
sS'msg'
p312
S'message'
p313
sS'successfuly'
p314
S'successfully'
p315
sS'inthe'
p316
S'in the'
p317
sS'apparrent'
p318
g177
sS'familar'
p319
S'familiar'
p320
sS'recomendations'
p321
S'recommendations'
p322
sS'decisons'
p323
g91
sS'nver'
p324
S'never'
p325
sS'peices'
p326
S'pieces'
p327
sS'acn'
p328
S'can'
p329
sS'wtb'
p330
S'want to buy'
p331
sS'their are'
p332
S'there are'
p333
sS'claerly'
p334
S'clearly'
p335
sS'opperation'
p336
S'operation'
p337
sS'paymetns'
p338
S'payments'
p339
sS'librery'
p340
g137
sS'pregnent'
p341
S'pregnant'
p342
sS'iwbni'
p343
S'it would be nice if'
p344
sS'ok'
p345
S'o k'
p346
sS'we\\;re'
p347
S"we're"
p348
sS'commitee'
p349
S'committee'
p350
sS'wtih'
p351
S'with'
p352
sS"coudn't"
p353
S"couldn't"
p354
sS'ahve'
p355
S'have'
p356
sS'mb'
p357
S'megabytes'
p358
sS'haven\\;t'
p359
S"haven't"
p360
sS'claered'
p361
S'cleared'
p362
sS'tnx'
p363
S'thanks'
p364
sS'peolpe'
p365
S'people'
p366
sS'indenpendent'
p367
S'independent'
p368
sS'selectoin'
p369
S'selection'
p370
sS'wiull'
p371
S'will'
p372
sS'decison'
p373
S'decision'
p374
sS'excellant'
p375
S'excellent'
p376
sS'didnt'
p377
S"didn't"
p378
sS'awya'
p379
S'away'
p380
sS"wo'nt"
p381
S"won't"
p382
sS'directers'
p383
S'directors'
p384
sS'afaict'
p385
S'as far as i can tell'
p386
sS'mesages'
p387
S'messages'
p388
sS'may of had'
p389
S'may have had'
p390
sS'alreayd'
p391
g141
sS"let's him"
p392
S'lets him'
p393
sS'shiped'
p394
S'shipped'
p395
sS'personalyl'
p396
S'personally'
p397
sS'tecnical'
p398
S'technical'
p399
sS'sot hat'
p400
S'so that'
p401
sS'will of had'
p402
S'will have had'
p403
sS'lisense'
p404
S'license'
p405
sS'myob'
p406
S'mind your own business'
p407
sS'necesary'
p408
S'necessary'
p409
sS'b4'
p410
S'before'
p411
sS'herat'
p412
S'heart'
p413
sS'must of been'
p414
S'must have been'
p415
sS'wouldn\\;t'
p416
S"wouldn't"
p417
sS'n-tropy'
p418
S'entropy'
p419
sS'oging'
p420
S'going'
p421
sS'your a'
p422
S"you're a"
p423
sS'tlaking'
p424
S'talking'
p425
sS'aamof'
p426
S'as a matter of fact'
p427
sS'calulated'
p428
S'calculated'
p429
sS'neccessarily'
p430
S'necessarily'
p431
sS'stroy'
p432
S'story'
p433
sS'ttfn'
p434
S'ta ta for now'
p435
sS'alway'
p436
g191
sS"doens't"
p437
S"doesn't"
p438
sS'reult'
p439
S'result'
p440
sS'disign'
p441
S'design'
p442
sS'actualyl'
p443
S'actually'
p444
sS'sucess'
p445
S'success'
p446
sS'resollution'
p447
S'resolution'
p448
sS'mroe'
p449
S'more'
p450
sS'shouldnt'
p451
g213
sS'iswim'
p452
S'if you see what i mean'
p453
sS'ptogress'
p454
S'progress'
p455
sS'pleasent'
p456
S'pleasant'
p457
sS'he\\;ll'
p458
S"he'll"
p459
sS'benifit'
p460
S'benefit'
p461
sS'kyfc'
p462
S'keep your fingers crossed'
p463
sS'witht he'
p464
S'with the'
p465
sS'oxident'
p466
S'oxidant'
p467
sS'devellop'
p468
S'develop'
p469
sS'your here'
p470
S"you're here"
p471
sS'fe'
p472
S'front end'
p473
sS'signifacnt'
p474
S'significant'
p475
sS'you\\;re'
p476
S"you're"
p477
sS"do'nt"
p478
g252
sS'irq'
p479
S'i r q'
p480
sS'benifits'
p481
S'benefits'
p482
sS"arn't"
p483
S"aren't"
p484
sS'doimg'
p485
g69
sS'occurence'
p486
g97
sS'afj'
p487
S"april fool's joke"
p488
sS'porblems'
p489
S'problems'
p490
sS'company\\;s'
p491
S"company's"
p492
sS'excitment'
p493
S'excitement'
p494
sS'recieved'
p495
S'received'
p496
sS'advanage'
p497
S'advantage'
p498
sS'effecient'
p499
S'efficient'
p500
sS'bykt'
p501
S'but you knew that'
p502
sS'themselfs'
p503
g226
sS'y/t'
p504
S'are you there'
p505
sS'brodcast'
p506
S'broadcast'
p507
sS'otehr'
p508
g185
sS'secs'
p509
S'seconds'
p510
sS'simalar'
p511
S'similar'
p512
sS'mysefl'
p513
S'myself'
p514
sS'freebsd'
p515
S'free bsd'
p516
sS'memeber'
p517
S'member'
p518
sS'scsi'
p519
S'scuzy'
p520
sS'beacuse'
p521
S'because'
p522
sS'aganist'
p523
S'against'
p524
sS'sincerly'
p525
S'sincerely'
p526
sS'stopry'
p527
g433
sS'will of been'
p528
S'will have been'
p529
sS'liekd'
p530
S'liked'
p531
sS'exhcanges'
p532
S'exchanges'
p533
sS'ocur'
p534
S'occur'
p535
sS'becaus'
p536
g522
sS'cooporate'
p537
g193
sS'awgthtgtwta?'
p538
S'are we going to have to go through with this again?'
p539
sS'becuse'
p540
g522
sS'levle'
p541
S'level'
p542
sS'oft he'
p543
g83
sS'insted'
p544
S'instead'
p545
sS'docuemnt'
p546
g47
sS'konw'
p547
S'know'
p548
sS'hwich'
p549
S'which'
p550
sS'wnat'
p551
S'want'
p552
sS'acomodate'
p553
S'accommodate'
p554
sS'b4n'
p555
S'bye for now'
p556
sS'ime'
p557
S'in my experience'
p558
sS'jic'
p559
S'just in case'
p560
sS'labratory'
p561
S'laboratory'
p562
sS'haveing'
p563
g27
sS'ptmm'
p564
S'please tell me more'
p565
sS'devellops'
p566
g469
sS'diffrent'
p567
g115
sS'imo'
p568
S'in my opinion'
p569
sS'poeple'
p570
g366
sS'cul8r'
p571
S'see you later'
p572
sS'quater'
p573
S'quarter'
p574
sS'thna'
p575
S'than'
p576
sS'specificalyl'
p577
g283
sS'realyl'
p578
S'really'
p579
sS'approrpiate'
p580
S'appropriate'
p581
sS'thne'
p582
S'then'
p583
sS'uok'
p584
S'are you ok?'
p585
sS'towrad'
p586
S'toward'
p587
sS'tomorow'
p588
S'tomorrow'
p589
sS'desicions'
p590
g91
sS'faetures'
p591
S'features'
p592
sS'accesories'
p593
S'accessories'
p594
sS'whihc'
p595
g550
sS'tje'
p596
g149
sS'knowldge'
p597
S'knowledge'
p598
sS'necesarily'
p599
g431
sS'grwo'
p600
S'grow'
p601
sS'tthe'
p602
g149
sS'comapnies'
p603
S'companies'
p604
sS'hapen'
p605
S'happen'
p606
sS'becomeing'
p607
g133
sS'ppl'
p608
g366
sS'develeoprs'
p609
S'developers'
p610
sS'yoiu'
p611
S'you'
p612
sS'fammiliar'
p613
g320
sS'impossable'
p614
S'impossible'
p615
sS'int he'
p616
g317
sS'develpment'
p617
g189
sS'categiory'
p618
S'category'
p619
sS'thegovernment'
p620
S'the government'
p621
sS'gal'
p622
S'get a life'
p623
sS'especally'
p624
S'especially'
p625
sS'suprise'
p626
S'surprise'
p627
sS'chekc'
p628
S'check'
p629
sS'k3nny'
p630
S'kenny'
p631
sS'permanant'
p632
S'permanent'
p633
sS'otfl'
p634
S'on the floor laughing'
p635
sS'doesnt'
p636
g438
sS'shesaid'
p637
S'she said'
p638
sS'rtfm'
p639
S'read the fecking manual'
p640
sS'neccessary'
p641
g409
sS'bak'
p642
S'back at keyboard'
p643
sS'corproations'
p644
S'corporations'
p645
sS'embarass'
p646
S'embarrass'
p647
sS'didn\\;t'
p648
g378
sS'dollers'
p649
S'dollars'
p650
sS'struggel'
p651
S'struggle'
p652
sS'changeing'
p653
S'changing'
p654
sS'doind'
p655
g69
sS'whic'
p656
g550
sS'doesn\\;t'
p657
g438
sS'tihs'
p658
S'this'
p659
sS'sercumstances'
p660
S'circumstances'
p661
sS'simpyl'
p662
S'simply'
p663
sS'tafn'
p664
S"that's all for now"
p665
sS'desision'
p666
g374
sS'wuould'
p667
g230
sS'beleif'
p668
S'belief'
p669
sS"let's it"
p670
S'lets it'
p671
sS'litttle'
p672
S'little'
p673
sS'arguements'
p674
S'arguments'
p675
sS'lthtt'
p676
S'laughing too hard to type'
p677
sS'd/l'
p678
S'download'
p679
sS'responsibile'
p680
S'responsible'
p681
sS'approrpriate'
p682
g581
sS're'
p683
S'regreet'
p684
sS'saidhe'
p685
S'said he'
p686
sS'makeing'
p687
S'making'
p688
sS'fitb'
p689
S'fill in the blank'
p690
sS'smoe'
p691
S'some'
p692
sS'gonig'
p693
g421
sS'flyaway'
p694
S'fly away'
p695
sS'perminent'
p696
g633
sS'thatthe'
p697
S'that the'
p698
sS'totalyl'
p699
S'totally'
p700
sS'sceduled'
p701
S'scheduled'
p702
sS'porvide'
p703
S'provide'
p704
sS'bbiab'
p705
S'be back in a bit'
p706
sS'fcfs'
p707
S'first come, first served'
p708
sS'giveing'
p709
S'giving'
p710
sS'wb'
p711
S'welcome back'
p712
sS'pmfbi'
p713
S'pardon me for butting in'
p714
sS'imnsho'
p715
S'in my not so humble opinion'
p716
sS'termoil'
p717
S'turmoil'
p718
sS'especialyl'
p719
g625
sS'comittee'
p720
g350
sS'candidtaes'
p721
S'candidates'
p722
sS'fromt he'
p723
S'from the'
p724
sS'thenew'
p725
S'the new'
p726
sS'almots'
p727
g49
sS"wern't"
p728
S"weren't"
p729
sS'wroet'
p730
S'wrote'
p731
sS'asdvertising'
p732
S'advertising'
p733
sS'couldthe'
p734
S'could the'
p735
sS'gmta'
p736
S'great minds think alike'
p737
sS'statments'
p738
S'statements'
p739
sS'quetion'
p740
S'question'
p741
sS'atm'
p742
S'at the moment'
p743
sS'comunicate'
p744
S'communicate'
p745
sS'taht'
p746
g4
sS'balence'
p747
S'balance'
p748
sS'tanstaafl'
p749
S"there ain't no such thing as a free lunch"
p750
sS'hhok'
p751
S'ha ha only kidding'
p752
sS'hhoj'
p753
S'ha ha only joking'
p754
sS'yuo'
p755
g612
sS'tahn'
p756
g576
sS'wihch'
p757
g550
sS'someting'
p758
g51
sS'differnt'
p759
g115
sS'lastyear'
p760
S'last year'
p761
sS'ljbf'
p762
S"let's just be friends"
p763
sS'dissonent'
p764
S'dissonant'
p765
sS'cutsomer'
p766
S'customer'
p767
sS'unpleasently'
p768
S'unpleasantly'
p769
sS'dont'
p770
g252
sS'redhat'
p771
S'red hat'
p772
sS'wtgp'
p773
S'want to go private?'
p774
sS'ihs'
p775
S'his'
p776
sS"woudln't"
p777
g417
sS'agreemnets'
p778
S'agreements'
p779
sS'thefirst'
p780
S'the first'
p781
sS'31337'
p782
S'eleet'
p783
sS'affraid'
p784
S'afraid'
p785
sS'ehr'
p786
S'her'
p787
sS'guidlines'
p788
S'guidelines'
p789
sS'tkaing'
p790
S'taking'
p791
sS'deptartment'
p792
S'department'
p793
sS'sufficiant'
p794
S'sufficient'
p795
sS'aboutit'
p796
S'about it'
p797
sS'I"m'
p798
S"I'm"
p799
sS'their is'
p800
g73
sS'hearign'
p801
S'hearing'
p802
sS'iac'
p803
S'in any case'
p804
sS'won\\;t'
p805
g382
sS'yiu'
p806
S'yes, i understand'
p807
sS'combintation'
p808
S'combination'
p809
sS'devellopers'
p810
g610
sS'responsable'
p811
g681
sS'withthe'
p812
g465
sS'56k'
p813
S'56 k'
p814
sS'tonihgt'
p815
S'tonight'
p816
sS'independant'
p817
g368
sS'esad'
p818
S'eat shit and die'
p819
sS'd00d'
p820
S'dood'
p821
sS'hoyew'
p822
S'hanging on your every word'
p823
sS'rsn'
p824
S'real soon now'
p825
sS'oppotunity'
p826
S'opportunity'
p827
sS'gerat'
p828
S'great'
p829
sS'perhpas'
p830
S'perhaps'
p831
sS'ikwum'
p832
S'i know what you mean'
p833
sS'hhos'
p834
S'ha ha only serious'
p835
sS'werre'
p836
S'were'
p837
sS'experiance'
p838
S'experience'
p839
sS'atthe'
p840
S'at the'
p841
sS'cya'
p842
S'see ya'
p843
sS'applicaitons'
p844
S'applications'
p845
sS'snafu'
p846
S'situation normal, all fouled up'
p847
sS'equippment'
p848
S'equipment'
p849
sS'mantain'
p850
S'maintain'
p851
sS'appearence'
p852
S'appearance'
p853
sS'willbe'
p854
S'will be'
p855
sS'charector'
p856
g208
sS'iaw'
p857
S'in accordance with'
p858
sS'allwyas'
p859
g191
sS'orginization'
p860
S'organization'
p861
sS'corruptable'
p862
S'corruptible'
p863
sS'directiosn'
p864
S'direction'
p865
sS'konws'
p866
g299
sS'ic'
p867
S'i see'
p868
sS'I\\;d'
p869
S"I'd"
p870
sS'pmf'
p871
S'pardon my french'
p872
sS'applicaiton'
p873
S'application'
p874
sS'useing'
p875
S'using'
p876
sS'might of had'
p877
S'might have had'
p878
sS'bye?'
p879
S'are you ready to say goodbye'
p880
sS'tyhe'
p881
g149
sS'cliant'
p882
S'client'
p883
sS'thigsn'
p884
S'things'
p885
sS'konwn'
p886
S'known'
p887
sS'deatils'
p888
S'details'
p889
sS'bbl'
p890
S'be back later'
p891
sS'consonent'
p892
S'consonant'
p893
sS'obtw'
p894
S'oh, by the way'
p895
sS'yaba'
p896
S'yet another bloody acronym'
p897
sS'here\\;s'
p898
S"here's"
p899
sS'indepedent'
p900
g368
sS'assistent'
p901
S'assistant'
p902
sS'atmospher'
p903
S'atmosphere'
p904
sS'talekd'
p905
S'talked'
p906
sS'wasnt'
p907
S"wasn't"
p908
sS'accordingto'
p909
S'according to'
p910
sS'nothign'
p911
S'nothing'
p912
sS'committment'
p913
S'commitment'
p914
sS'^'
p915
S'look up'
p916
sS'idae'
p917
S'idea'
p918
sS'wdyt'
p919
S'what do you think?'
p920
sS'atention'
p921
S'attention'
p922
sS'isdn'
p923
S'i s d n'
p924
sS'faeture'
p925
S'feature'
p926
sS'tyvm'
p927
S'thank you very much'
p928
sS'thankx'
p929
g364
sS'andt he'
p930
S'and the'
p931
sS'she\\;ll'
p932
S"she'll"
p933
sS'infomation'
p934
S'information'
p935
sS"there's is"
p936
S'theirs is'
p937
sS'byt he'
p938
S'by the'
p939
sS'additinal'
p940
g248
sS'somtimes'
p941
S'sometimes'
p942
sS'motas'
p943
S'member of the appropriate sex'
p944
sS'similiar'
p945
g512
sS'hge'
p946
S'he'
p947
sS'agressive'
p948
S'aggressive'
p949
sS'desicion'
p950
g374
sS'develloping'
p951
S'developing'
p952
sS'knowlege'
p953
g598
sS'watn'
p954
g552
sS'may of been'
p955
S'may have been'
p956
sS'sol'
p957
S'shit out of luck'
p958
sS'postition'
p959
S'position'
p960
sS'wnated'
p961
S'wanted'
p962
sS'independance'
p963
S'independence'
p964
sS'divsion'
p965
S'division'
p966
sS'frmo'
p967
S'from'
p968
sS'comited'
p969
S'committed'
p970
sS'ymmv'
p971
S'your mileage may vary'
p972
sS'iyswim'
p973
g453
sS'shcool'
p974
S'school'
p975
sS'thta'
p976
g4
sS'pmji'
p977
S'pardon my jumping in'
p978
sS'thsi'
p979
g659
sS'feilds'
p980
S'fields'
p981
sS'peice'
p982
S'piece'
p983
sS'develloper'
p984
S'developer'
p985
sS"shoudln't"
p986
g213
sS'quaters'
p987
S'quarters'
p988
sS'sohw'
p989
S'show'
p990
sS'mkaing'
p991
g688
sS'foriegn'
p992
S'foreign'
p993
sS'2nd'
p994
S'second'
p995
sS'indenpendence'
p996
g964
sS'veyr'
p997
S'very'
p998
sS'pwoer'
p999
S'power'
p1000
sS'wherre'
p1001
S'where'
p1002
sS'alwyas'
p1003
g191
sS'aren\\;t'
p1004
g484
sS'andthe'
p1005
g931
sS'documetn'
p1006
g47
sS'knwo'
p1007
g548
sS'ttbomk'
p1008
S'to the best of my knowledge'
p1009
sS'rtm'
p1010
S'read the manual'
p1011
sS'opposit'
p1012
S'opposite'
p1013
sS'asthe'
p1014
S'as the'
p1015
sS'tkaes'
p1016
S'takes'
p1017
sS'agreemeents'
p1018
g779
sS'who\\;s'
p1019
S"who's"
p1020
sS'comany'
p1021
S'company'
p1022
sS'abouta'
p1023
S'about a'
p1024
sS'tryed'
p1025
S'tried'
p1026
sS'togehter'
p1027
S'together'
p1028
sS'thetwo'
p1029
S'the two'
p1030
sS'recomendation'
p1031
S'recommendation'
p1032
sS'shineing'
p1033
S'shining'
p1034
sS'chnage'
p1035
S'change'
p1036
sS'thnig'
p1037
S'thing'
p1038
sS'abotu'
p1039
S'about'
p1040
sS'where\\;s'
p1041
S"where's"
p1042
sS'garantee'
p1043
S'guarantee'
p1044
sS'recomended'
p1045
S'recommended'
p1046
sS'excercise'
p1047
S'exercise'
p1048
sS'ygwypf'
p1049
S'you get what you pay for'
p1050
sS'foward'
p1051
S'forward'
p1052
sS'jam'
p1053
S'just a minute'
p1054
sS'acheiving'
p1055
S'achieving'
p1056
sS'vulnerible'
p1057
S'vulnerable'
p1058
sS'libary'
p1059
g137
sS'traditionalyl'
p1060
S'traditionally'
p1061
sS'owrk'
p1062
S'work'
p1063
sS'oppotunities'
p1064
S'opportunities'
p1065
sS'at0mic_'
p1066
S'atomic'
p1067
sS'amde'
p1068
S'made'
p1069
sS'religous'
p1070
S'religious'
p1071
sS'instaleld'
p1072
S'installed'
p1073
sS'issygti'
p1074
S"i'm so sure you get the idea!"
p1075
sS'insurence'
p1076
S'insurance'
p1077
sS'maintenence'
p1078
S'maintenance'
p1079
sS'liveing'
p1080
S'living'
p1081
sS'acommodate'
p1082
g554
sS'cotten'
p1083
S'cotton'
p1084
sS'tghis'
p1085
g659
sS'driveing'
p1086
S'driving'
p1087
sS'chaneg'
p1088
g1036
sS'sos'
p1089
S'help!'
p1090
sS'beleive'
p1091
g303
sS'attentioin'
p1092
g922
sS'representives'
p1093
S'representatives'
p1094
sS'must of had'
p1095
S'must have had'
p1096
sS'let\\;s'
p1097
S"let's"
p1098
sS'separeate'
p1099
S'separate'
p1100
sS'withe'
p1101
g352
sS'disatisfied'
p1102
S'dissatisfied'
p1103
sS'pmfji'
p1104
S'pardon me for jumping in'
p1105
sS'witha'
p1106
S'with a'
p1107
sS'iyfeg'
p1108
S'insert your favorite ethnic group'
p1109
sS'beleives'
p1110
S'believes'
p1111
sS'qa'
p1112
S'quality assurance'
p1113
sS'psoition'
p1114
g960
sS'w/o'
p1115
S'without'
p1116
sS'catagory'
p1117
g619
sS'ayt'
p1118
S'are you there?'
p1119
sS'bbialb'
p1120
S'be back in a little bit'
p1121
sS'beleived'
p1122
S'believed'
p1123
sS'afterthe'
p1124
S'after the'
p1125
sS'reconize'
p1126
S'recognize'
p1127
sS'transfered'
p1128
S'transferred'
p1129
sS'abbout'
p1130
g1040
sS'btw'
p1131
S'by the way'
p1132
sS'papaer'
p1133
S'paper'
p1134
sS'freinds'
p1135
S'friends'
p1136
sS'hte'
p1137
g149
sS'your an'
p1138
S"you're an"
p1139
sS"they're are"
p1140
g333
sS'consultent'
p1141
S'consultant'
p1142
sS'recieve'
p1143
g59
sS'pncah'
p1144
S'please, no cursing allowed here'
p1145
sS'bta'
p1146
S'but then again'
p1147
sS'imho'
p1148
S'in my humble opinion'
p1149
sS'moeny'
p1150
S'money'
p1151
sS'enought'
p1152
S'enough'
p1153
sS'tongiht'
p1154
g816
sS'wrod'
p1155
S'word'
p1156
sS'seh'
p1157
S'she'
p1158
sS'htese'
p1159
S'these'
p1160
sS'discoverd'
p1161
S'discovered'
p1162
sS'freindly'
p1163
S'friendly'
p1164
sS'developor'
p1165
g985
sS'aggresive'
p1166
g949
sS'iirc'
p1167
S'if i remember correctly'
p1168
sS'havebeen'
p1169
S'have been'
p1170
sS'agreemnet'
p1171
S'agreement'
p1172
sS'applyed'
p1173
S'applied'
p1174
sS'couldn\\;t'
p1175
g354
sS'irl'
p1176
S'in real life'
p1177
sS'woh'
p1178
S'who'
p1179
sS'necassary'
p1180
g409
sS'stoyr'
p1181
g433
sS'exprience'
p1182
g839
sS'soem'
p1183
g692
sS'ima'
p1184
S'i might add'
p1185
sS'rotflol'
p1186
S'rolling on the floor laughing out loud'
p1187
sS'thansk'
p1188
g364
sS'changable'
p1189
S'changeable'
p1190
sS'betwen'
p1191
S'between'
p1192
sS'hesaid'
p1193
S'he said'
p1194
sS'morgage'
p1195
S'mortgage'
p1196
sS'performence'
p1197
S'performance'
p1198
sS'confirmmation'
p1199
S'confirmation'
p1200
sS'yeras'
p1201
S'years'
p1202
sS'butthe'
p1203
S'but the'
p1204
sS'reserach'
p1205
S'research'
p1206
sS'perhasp'
p1207
g831
sS'recrod'
p1208
S'record'
p1209
sS'orginized'
p1210
S'organized'
p1211
sS'it\\;s'
p1212
S"it's"
p1213
sS'wtf'
p1214
S'what the feck'
p1215
sS'conected'
p1216
S'connected'
p1217
sS'wth'
p1218
S'what the hell?'
p1219
sS'yiwgp'
p1220
S'yes, i will go private'
p1221
sS'follwoing'
p1222
S'following'
p1223
sS'saidthe'
p1224
S'said the'
p1225
sS'becausea'
p1226
S'because a'
p1227
sS'developements'
p1228
g232
sS'committy'
p1229
g350
sS'foudn'
p1230
S'found'
p1231
sS'bcnu'
p1232
S'be seeing you'
p1233
sS'ballance'
p1234
g748
sS'motss'
p1235
S'member of the same sex'
p1236
sS'iits the'
p1237
S"it's the"
p1238
sS'doign'
p1239
g69
sS'alot'
p1240
S'a lot'
p1241
sS'goverment'
p1242
g275
sS'didnot'
p1243
S'did not'
p1244
sS'mispell'
p1245
S'misspell'
p1246
sS'tnxe6'
p1247
S'thanks a million'
p1248
sS'your their'
p1249
S"you're their"
p1250
sS'becauseof'
p1251
S'because of'
p1252
sS'interum'
p1253
S'interim'
p1254
sS'shouldn\\;t'
p1255
g213
sS'we\\;ll'
p1256
S"we'll"
p1257
sS'wtg'
p1258
S'way to go!'
p1259
sS'documnets'
p1260
g87
sS'improvment'
p1261
S'improvement'
p1262
sS'reccomend'
p1263
S'recommend'
p1264
sS'its the'
p1265
g1238
sS'yersa'
p1266
g1202
sS'arguement'
p1267
S'argument'
p1268
sS'gruop'
p1269
S'group'
p1270
sS'developement'
p1271
g189
sS'alwats'
p1272
g191
sS'appeares'
p1273
S'appears'
p1274
sS'wief'
p1275
S'wife'
p1276
sS'danceing'
p1277
S'dancing'
p1278
sS'occured'
p1279
S'occurred'
p1280
sS'jsut'
p1281
S'just'
p1282
sS'differant'
p1283
g115
sS'learnign'
p1284
S'learning'
p1285
sS'wokr'
p1286
g1063
sS'ianal'
p1287
S'i am not a lawyer'
p1288
sS'candidtae'
p1289
S'candidate'
p1290
sS'wrt'
p1291
S'with regard to,  or with respect to'
p1292
sS'acheived'
p1293
S'achieved'
p1294
sS'iwll'
p1295
g372
sS'suposed'
p1296
S'supposed'
p1297
sS'pci'
p1298
S'p c i'
p1299
sS'resorces'
p1300
S'resources'
p1301
sS'importnat'
p1302
S'important'
p1303
sS'parliment'
p1304
S'parliament'
p1305
sS'nhoh'
p1306
S'never heard of him slash her'
p1307
sS'ctaegory'
p1308
g619
sS'willg'
p1309
S'will g'
p1310
sS'tjhe'
p1311
g149
sS'imao'
p1312
S'in my arrogant opinion'
p1313
sS'representativs'
p1314
g1094
sS'likly'
p1315
S'likely'
p1316
sS'recomend'
p1317
g1264
sS'imediate'
p1318
S'immediate'
p1319
sS'circut'
p1320
S'circuit'
p1321
sS'cieling'
p1322
S'ceiling'
p1323
sS'writting'
p1324
S'writing'
p1325
sS'iss'
p1326
S"i'm so sure"
p1327
sS'agreemeent'
p1328
g1172
sS'beleieve'
p1329
g303
sS'composate'
p1330
S'composite'
p1331
sS'hmm'
p1332
S'hurrmmm'
p1333
sS'respomse'
p1334
S'response'
p1335
sS'questoin'
p1336
g741
sS'aywa'
p1337
g380
sS'liuke'
p1338
S'like'
p1339
sS'onyl'
p1340
S'only'
p1341
sS'changng'
p1342
g654
sS'ipx'
p1343
S'i p x'
p1344
sS'thecompany'
p1345
S'the company'
p1346
sS'otu'
p1347
S'out'
p1348
sS'mispellings'
p1349
S'misspellings'
p1350
sS'f2f'
p1351
S'face to face'
p1352
sS'amke'
p1353
g219
sS'theyve'
p1354
S"they've"
p1355
sS'tanj'
p1356
S"there ain't no justice"
p1357
sS'responsability'
p1358
S'responsibility'
p1359
sS'forwrds'
p1360
g119
sS'udnerstand'
p1361
S'understand'
p1362
sS'tkae'
p1363
S'take'
p1364
sS'convertable'
p1365
S'convertible'
p1366
sS'giwist'
p1367
S"gee, i wish i'd said that"
p1368
sS'hda'
p1369
S'had'
p1370
sS'sitll'
p1371
S'still'
p1372
sS'claer'
p1373
S'clear'
p1374
sS'rsvp'
p1375
S'please reply'
p1376
sS'reccommend'
p1377
g1264
sS'motd'
p1378
S'message of the day'
p1379
sS'timne'
p1380
S'time'
p1381
sS'ip'
p1382
S'i p'
p1383
sS';-)'
p1384
g289
sS'questiosn'
p1385
g258
sS'itnerest'
p1386
S'interest'
p1387
sS'befoer'
p1388
g411
sS'bbfn'
p1389
S'bye bye for now'
p1390
sS'developors'
p1391
g610
sS'firends'
p1392
g1136
sS'lin0x'
p1393
S'linux'
p1394
sS'exchagne'
p1395
g175
sS'rwite'
p1396
S'write'
p1397
sS'hadn\\;t'
p1398
S"hadn't"
p1399
sS'thesame'
p1400
S'the same'
p1401
sS'rythm'
p1402
S'rhythm'
p1403
sS'might of been'
p1404
S'might have been'
p1405
sS'pnpisa'
p1406
S'p n p i s a'
p1407
sS'what\\;s'
p1408
S"what's"
p1409
sS'ryfm'
p1410
S'read your friendly manual'
p1411
sS'anual'
p1412
S'annual'
p1413
sS'tothe'
p1414
S'to the'
p1415
sS'anbd'
p1416
S'and'
p1417
sS'committments'
p1418
S'commitments'
p1419
sS'wierd'
p1420
S'weird'
p1421
sS'cul'
p1422
g572
sS'fidn'
p1423
S'find'
p1424
sS'follwo'
p1425
S'follow'
p1426
sS'fubar'
p1427
S'fecked up beyond all repair'
p1428
sS'threatend'
p1429
S'threatened'
p1430
sS'foaf'
p1431
S'friend of a friend'
p1432
sS'whent he'
p1433
S'when the'
p1434
sS'vrey'
p1435
g998
sS'againstt he'
p1436
S'against the'
p1437
sS'amkes'
p1438
g183
sS'committe'
p1439
g350
sS'differance'
p1440
S'difference'
p1441
sS'somethign'
p1442
g51
sS'iow'
p1443
S'in other words'
p1444
sS'definately'
p1445
S'definitely'
p1446
sS'oic'
p1447
S'oh, i see'
p1448
sS'managment'
p1449
S'management'
p1450
sS'eforts'
p1451
S'efforts'
p1452
sS'identd'
p1453
S'ident d'
p1454
sS'charecter'
p1455
g208
sS'familliar'
p1456
g320
sS'sentance'
p1457
S'sentence'
p1458
sS'mesage'
p1459
g313
sS'i snot'
p1460
S'is not'
p1461
sS'finalyl'
p1462
g256
sS'familair'
p1463
g320
sS'your your'
p1464
S"you're your"
p1465
sS'potentialy'
p1466
S'potentially'
p1467
sS'oppasite'
p1468
g1013
sS'cula'
p1469
S'see you later, alligator'
p1470
sS'inital'
p1471
S'initial'
p1472
sS'aquisition'
p1473
S'acquisition'
p1474
sS'gloabl'
p1475
S'global'
p1476
sS'thx'
p1477
g364
sS'certian'
p1478
S'certain'
p1479
sS"it' snot"
p1480
g71
sS'responce'
p1481
g1335
sS'dtrt'
p1482
S'do the right thing'
p1483
sS'becausethe'
p1484
S'because the'
p1485
sS'didint'
p1486
g378
sS'myu'
p1487
S'my'
p1488
sS'wya'
p1489
S'way'
p1490
sS'ne1'
p1491
S'anyone'
p1492
sS'hadbeen'
p1493
S'had been'
p1494
sS'restuarant'
p1495
S'restaurant'
p1496
sS'sec'
p1497
S'wait a second'
p1498
sS'l8r'
p1499
S'later'
p1500
sS'equivalant'
p1501
S'equivalent'
p1502
sS'i8urdog'
p1503
S'I ate your dog'
p1504
sS'soudn'
p1505
S'sound'
p1506
sS'corproation'
p1507
S'corporation'
p1508
sS'tcp'
p1509
S't c p'
p1510
sS'reveiwing'
p1511
S'reviewing'
p1512
sS'informatoin'
p1513
g935
sS'ofits'
p1514
S'of its'
p1515
sS'ad'
p1516
S'add'
p1517
sS'accross'
p1518
S'across'
p1519
sS'waht'
p1520
S'what'
p1521
sS'successfulyl'
p1522
g315
sS'loev'
p1523
S'love'
p1524
sS'exprienced'
p1525
S'experienced'
p1526
sS'identofy'
p1527
S'identify'
p1528
sS'virtualyl'
p1529
S'virtually'
p1530
sS'marraige'
p1531
S'marriage'
p1532
sS'untilll'
p1533
S'until'
p1534
sS'knwon'
p1535
g887
sS'msot'
p1536
S'most'
p1537
sS'afaik'
p1538
S'as far as i know'
p1539
sS'askt he'
p1540
S'ask the'
p1541
sS'yt'
p1542
g505
sS'foad'
p1543
S'feck off and die'
p1544
sS'drnik'
p1545
S'drink'
p1546
sS"don't no"
p1547
S"don't know"
p1548
sS'doe snot'
p1549
S'does not'
p1550
sS'adn'
p1551
S'any day now'
p1552
sS'percentto'
p1553
S'percent to'
p1554
sS'shoudl'
p1555
S'should'
p1556
sS'accomodate'
p1557
g554
sS'rehi'
p1558
S'hi again'
p1559
sS'swim'
p1560
S'see what i mean?'
p1561
sS'...'
p1562
S'\\,'
p1563
sS'fya'
p1564
S'for your amusement'
p1565
sS'gievn'
p1566
S'given'
p1567
sS"coudln't"
p1568
g354
sS"dosn't"
p1569
g438
sS'showinf'
p1570
S'showing'
p1571
sS'availalbe'
p1572
S'available'
p1573
sS'stpo'
p1574
S'stop'
p1575
sS'prominant'
p1576
S'prominent'
p1577
sS'truely'
p1578
S'truly'
p1579
sS'wiht'
p1580
g352
sS'colection'
p1581
S'collection'
p1582
sS'andteh'
p1583
g931
sS'they\\;re'
p1584
S"they're"
p1585
sS'Ameria'
p1586
S'America'
p1587
sS'whta'
p1588
g1521
sS'should of had'
p1589
S'should have had'
p1590
sS'inteh'
p1591
g317
sS'seperate'
p1592
g1100
sS'isthe'
p1593
S'is the'
p1594
sS'comntains'
p1595
S'contains'
p1596
sS'itnerests'
p1597
S'interests'
p1598
sS'wnats'
p1599
S'wants'
p1600
sS'we\\;d'
p1601
S"we'd"
p1602
sS'esle'
p1603
S'else'
p1604
sS'alreday'
p1605
g141
sS'cu'
p1606
S'see you'
p1607
sS'beggining'
p1608
S'beginning'
p1609
sS'htey'
p1610
g67
sS'gd\\&r'
p1611
S'grinning, ducking and running'
p1612
sS'inwhich'
p1613
S'in which'
p1614
sS'tic'
p1615
S'tongue in cheek'
p1616
sS'quetions'
p1617
g258
sS'necassarily'
p1618
g431
sS'rotf'
p1619
S'rolling on the floor'
p1620
sS'jugment'
p1621
S'judgment'
p1622
sS'compair'
p1623
S'compare'
p1624
sS'aboutthe'
p1625
S'about the'
p1626
sS'ahppen'
p1627
g606
sS'wohle'
p1628
S'whole'
p1629
sS'motos'
p1630
S'member of the opposite sex'
p1631
sS'littel'
p1632
g673
sS'whcih'
p1633
g550
sS'almsot'
p1634
g49
sS'lshmba'
p1635
S'laughing so hard my belly aches'
p1636
sS'studnet'
p1637
S'student'
p1638
sS'lieutenent'
p1639
S'lieutenant'
p1640
sS'omre'
p1641
g450
sS'porblem'
p1642
S'problem'
p1643
sS'thier'
p1644
S'their'
p1645
sS'who\\;ve'
p1646
S"who've"
p1647
sS'defendent'
p1648
S'defendant'
p1649
sS'agian'
p1650
S'again'
p1651
sS'scedule'
p1652
S'schedule'
p1653
sS'totaly'
p1654
g700
sS'audiance'
p1655
g53
sS'they\\;ll'
p1656
S"they'll"
p1657
sS'compleatly'
p1658
S'completely'
p1659
sS'brb'
p1660
S'be right back'
p1661
sS'gd\\&wvvf'
p1662
S'grinning, ducking, and walking very, very fast'
p1663
sS'itneresting'
p1664
S'interesting'
p1665
sS'r u there?'
p1666
g1119
sS'puting'
p1667
S'putting'
p1668
sS'afair'
p1669
S'as far as i remember'
p1670
sS'cna'
p1671
g329
sS'ott'
p1672
S'over the top'
p1673
sS':-p'
p1674
g113
sS'thnigs'
p1675
g885
sS'completly'
p1676
g1659
sS'improvemnt'
p1677
g1262
sS'bf'
p1678
S'boy friend'
p1679
sS'hsa'
p1680
S'has'
p1681
sS'hapening'
p1682
S'happening'
p1683
sS'asap'
p1684
S'as soon as possible'
p1685
sS'I\\;ll'
p1686
S"I'll"
p1687
sS'hsi'
p1688
g776
sS'comapny'
p1689
g1022
sS'comunity'
p1690
S'community'
p1691
sS'documnet'
p1692
g47
sS'thge'
p1693
g149
sS'haev'
p1694
g356
sS'efel'
p1695
S'feel'
p1696
sS'presance'
p1697
S'presence'
p1698
sS'considerit'
p1699
g135
sS'windoes'
p1700
S'windows'
p1701
sS'feild'
p1702
S'field'
p1703
sS'compleated'
p1704
S'completed'
p1705
sS'anothe'
p1706
S'another'
p1707
sS'challanges'
p1708
S'challenges'
p1709
sS'onthe'
p1710
S'on the'
p1711
sS'differances'
p1712
g163
sS'obo'
p1713
S'or best offer'
p1714
sS':-)'
p1715
g8
sS'they\\;l'
p1716
g1657
sS'percentof'
p1717
S'percent of'
p1718
sS'wouldnt'
p1719
g417
sS'ytou'
p1720
g612
sS'sectino'
p1721
S'section'
p1722
sS'thatt he'
p1723
g698
sS'ltns'
p1724
S'long time no see'
p1725
sS'stnad'
p1726
S'stand'
p1727
sS'charachter'
p1728
g208
sS"you're own"
p1729
S'your own'
p1730
sS'cheif'
p1731
S'chief'
p1732
sS'tath'
p1733
g4
sS'youve'
p1734
S"you've"
p1735
sS'warrent'
p1736
S'warrant'
p1737
sS'they\\;r'
p1738
g1585
sS'truley'
p1739
g1579
sS'they\\;v'
p1740
g1355
sS'dispaly'
p1741
S'display'
p1742
sS'opposible'
p1743
S'opposable'
p1744
sS'hapens'
p1745
S'happens'
p1746
sS'liek'
p1747
g1339
sS'lenght'
p1748
S'length'
p1749
sS'hp/ux'
p1750
S'hp ux'
p1751
sS'statment'
p1752
S'statement'
p1753
sS'importent'
p1754
g1303
sS'strentgh'
p1755
S'strength'
p1756
sS'soudns'
p1757
S'sounds'
p1758
sS'quesion'
p1759
g741
sS'liev'
p1760
S'live'
p1761
sS'it\\;ll'
p1762
S"it'll"
p1763
sS'rtfaq'
p1764
S'read the frequently asked questions'
p1765
sS'ocasion'
p1766
g295
sS'couldnt'
p1767
g354
sS'eligable'
p1768
S'eligible'
p1769
sS'iwth'
p1770
g352
sS'partof'
p1771
S'part of'
p1772
sS'represnt'
p1773
S'represent'
p1774
sS'responsiblity'
p1775
g1359
sS'bcak'
p1776
g179
sS'..'
p1777
g1563
sS'theri'
p1778
g1645
sS'awc'
p1779
S'after while, crocodile'
p1780
sS'abscence'
p1781
S'absence'
p1782
sS'furneral'
p1783
S'funeral'
p1784
sS'tyhat'
p1785
g4
sS'lol'
p1786
S'laughing out loud'
p1787
sS'becauseyou'
p1788
S'because you'
p1789
sS'includ'
p1790
S'include'
p1791
sS'wibni'
p1792
S'wouldn\t it be nice if'
p1793
sS'lonly'
p1794
S'lonely'
p1795
sS'beginining'
p1796
g1609
sS'comtains'
p1797
g1596
sS'hewas'
p1798
S'he was'
p1799
sS'baout'
p1800
g1040
sS'lookign'
p1801
S'looking'
p1802
sS'hasnt'
p1803
g2
sS'respomd'
p1804
S'respond'
p1805
sS'woudl'
p1806
g230
sS'kb'
p1807
S'kilobytes'
p1808
sS'should of been'
p1809
S'should have been'
p1810
sS'fora'
p1811
S'for a'
p1812
sS'itnerested'
p1813
S'interested'
p1814
sS'gemeral'
p1815
S'general'
p1816
sS'todya'
p1817
S'today'
p1818
sS'ititial'
p1819
g1472
sS'netbsd'
p1820
S'net bsd'
p1821
sS'strugle'
p1822
g652
sS'doese'
p1823
S'does'
p1824
sS'openbsd'
p1825
S'open bsd'
p1826
sS'fyi'
p1827
S'for your information'
p1828
sS'ijwtk'
p1829
S'i just want to know'
p1830
sS'becasue'
p1831
g522
sS'htis'
p1832
g659
sS'geting'
p1833
g123
sS'wygiswypf'
p1834
S'what you get is what you pay for'
p1835
sS'peopel'
p1836
g366
sS'compleatness'
p1837
g201
sS'begining'
p1838
g1609
sS'restaraunt'
p1839
g1496
sS'comanies'
p1840
g604
sS'oppertunity'
p1841
g827
sS'reommend'
p1842
g1264
sS'tellt he'
p1843
S'tell the'
p1844
sS'diku?'
p1845
S'do i know you?'
p1846
sS'condolances'
p1847
S'condolences'
p1848
sS'directer'
p1849
S'director'
p1850
sS'somewaht'
p1851
S'somewhat'
p1852
sS'represetned'
p1853
S'represented'
p1854
sS'understnad'
p1855
g1362
sS'itis'
p1856
S'it is'
p1857
sS'cusotmer'
p1858
g767
sS'hismelf'
p1859
S'himself'
p1860
sS'hvae'
p1861
g356
sS'toldt he'
p1862
S'told the'
p1863
sS'ont he'
p1864
g1711
sS'exchagnes'
p1865
g533
sS'probelms'
p1866
g490
sS'distribusion'
p1867
S'distribution'
p1868
sS'kwim'
p1869
S'know what i mean?'
p1870
sS'bbiaf'
p1871
S'be back in a few'
p1872
sS'nkow'
p1873
g548
sS'forwrd'
p1874
g1052
sS'youare'
p1875
S'you are'
p1876
sS'comming'
p1877
S'coming'
p1878
sS'tiogether'
p1879
g1028
sS'wriet'
p1880
g1397
sS'saidt he'
p1881
g1225
sS'charachters'
p1882
S'characters'
p1883
sS'cusotmers'
p1884
S'customers'
p1885
sS'hapened'
p1886
g89
sS'probelm'
p1887
g1643
sS'difefrent'
p1888
g115
sS'goign'
p1889
g421
sS'fromthe'
p1890
g724
sS'soical'
p1891
S'social'
p1892
sS'reluctent'
p1893
S'reluctant'
p1894
sS'theyll'
p1895
g1657
sS'they\\;ve'
p1896
g1355
sS'could of had'
p1897
S'could have had'
p1898
sS'negotiaing'
p1899
S'negotiating'
p1900
sS'nah'
p1901
S'no'
p1902
sS'develloped'
p1903
S'developed'
p1904
sS'unliek'
p1905
S'unlike'
p1906
sS'opposate'
p1907
g1013
sS'oneof'
p1908
S'one of'
p1909
sS'can\\;t'
p1910
S"can't"
p1911
sS'adequite'
p1912
g65
sS'htink'
p1913
S'think'
p1914
sS'tptb'
p1915
S'the powers that be'
p1916
sS'np'
p1917
S'no problem'
p1918
sS'hting'
p1919
g1038
sS'becuase'
p1920
g522
sS'tia'
p1921
S'thanks in advance'
p1922
sS'kibo'
p1923
S'knowledge in, bullshit out'
p1924
sS'helpfull'
p1925
S'helpful'
p1926
sS'wouldbe'
p1927
S'would be'
p1928
sS'develope'
p1929
g469
sS'possable'
p1930
S'possible'
p1931
sS'oeprator'
p1932
S'operator'
p1933
sS'diaplay'
p1934
g1742
sS'could of been'
p1935
S'could have been'
p1936
sS'otf'
p1937
S'on the floor'
p1938
sS'speach'
p1939
S'speech'
p1940
sS'questioms'
p1941
g258
sS'cxan'
p1942
g329
sS'calcullated'
p1943
g429
sS'your her'
p1944
S"you're her"
p1945
sS'experienc'
p1946
g839
sS'cutsomers'
p1947
g1885
sS'imediatly'
p1948
g285
sS'onepoint'
p1949
S'one point'
p1950
sS'talkign'
p1951
g425
sS'dvd'
p1952
S'd v d'
p1953
sS'tghe'
p1954
g149
sS'sucessfull'
p1955
g45
sS'rumers'
p1956
S'rumors'
p1957
sS'mispelling'
p1958
S'misspelling'
p1959
sS'suppossed'
p1960
g1297
sS'you\\;d'
p1961
S"you'd"
p1962
sS'accidant'
p1963
S'accident'
p1964
sS'byob'
p1965
S'bring your own bottle'
p1966
sS'espesially'
p1967
g625
s.